Archive member included to satisfy reference by file (symbol)

/usr/lib/gcc/arm-none-eabi/10.3.1/thumb/v6-m/nofp/libgcc.a(_dvmd_tls.o)
                              CMakeFiles/telitHost.dir/mnt/LinuxApps/PicoSDK/pico-sdk/src/rp2_common/pico_divider/divider.S.obj (__aeabi_idiv0)
/usr/lib/gcc/arm-none-eabi/10.3.1/../../../arm-none-eabi/lib/thumb/v6-m/nofp/libg.a(lib_a-atexit.o)
                              /usr/lib/gcc/arm-none-eabi/10.3.1/../../../arm-none-eabi/lib/thumb/v6-m/nofp/crt0.o (atexit)
/usr/lib/gcc/arm-none-eabi/10.3.1/../../../arm-none-eabi/lib/thumb/v6-m/nofp/libg.a(lib_a-atoi.o)
                              CMakeFiles/telitHost.dir/telitHost.c.obj (atoi)
/usr/lib/gcc/arm-none-eabi/10.3.1/../../../arm-none-eabi/lib/thumb/v6-m/nofp/libg.a(lib_a-calloc.o)
                              CMakeFiles/telitHost.dir/mnt/LinuxApps/PicoSDK/pico-sdk/src/rp2_common/pico_malloc/pico_malloc.c.obj (calloc)
/usr/lib/gcc/arm-none-eabi/10.3.1/../../../arm-none-eabi/lib/thumb/v6-m/nofp/libg.a(lib_a-callocr.o)
                              /usr/lib/gcc/arm-none-eabi/10.3.1/../../../arm-none-eabi/lib/thumb/v6-m/nofp/libg.a(lib_a-calloc.o) (_calloc_r)
/usr/lib/gcc/arm-none-eabi/10.3.1/../../../arm-none-eabi/lib/thumb/v6-m/nofp/libg.a(lib_a-ctype_.o)
                              CMakeFiles/telitHost.dir/mnt/LinuxApps/PicoSDK/pico-sdk/lib/tinyusb/src/tusb.c.obj (_ctype_)
/usr/lib/gcc/arm-none-eabi/10.3.1/../../../arm-none-eabi/lib/thumb/v6-m/nofp/libg.a(lib_a-fini.o)
                              /usr/lib/gcc/arm-none-eabi/10.3.1/../../../arm-none-eabi/lib/thumb/v6-m/nofp/crt0.o (__libc_fini_array)
/usr/lib/gcc/arm-none-eabi/10.3.1/../../../arm-none-eabi/lib/thumb/v6-m/nofp/libg.a(lib_a-impure.o)
                              /usr/lib/gcc/arm-none-eabi/10.3.1/../../../arm-none-eabi/lib/thumb/v6-m/nofp/libg.a(lib_a-calloc.o) (_impure_ptr)
/usr/lib/gcc/arm-none-eabi/10.3.1/../../../arm-none-eabi/lib/thumb/v6-m/nofp/libg.a(lib_a-init.o)
                              /usr/lib/gcc/arm-none-eabi/10.3.1/../../../arm-none-eabi/lib/thumb/v6-m/nofp/crt0.o (__libc_init_array)
/usr/lib/gcc/arm-none-eabi/10.3.1/../../../arm-none-eabi/lib/thumb/v6-m/nofp/libg.a(lib_a-malloc.o)
                              CMakeFiles/telitHost.dir/mnt/LinuxApps/PicoSDK/pico-sdk/src/rp2_common/pico_malloc/pico_malloc.c.obj (malloc)
/usr/lib/gcc/arm-none-eabi/10.3.1/../../../arm-none-eabi/lib/thumb/v6-m/nofp/libg.a(lib_a-mallocr.o)
                              /usr/lib/gcc/arm-none-eabi/10.3.1/../../../arm-none-eabi/lib/thumb/v6-m/nofp/libg.a(lib_a-callocr.o) (_malloc_r)
/usr/lib/gcc/arm-none-eabi/10.3.1/../../../arm-none-eabi/lib/thumb/v6-m/nofp/libg.a(lib_a-mlock.o)
                              /usr/lib/gcc/arm-none-eabi/10.3.1/../../../arm-none-eabi/lib/thumb/v6-m/nofp/libg.a(lib_a-mallocr.o) (__malloc_lock)
/usr/lib/gcc/arm-none-eabi/10.3.1/../../../arm-none-eabi/lib/thumb/v6-m/nofp/libg.a(lib_a-sbrkr.o)
                              /usr/lib/gcc/arm-none-eabi/10.3.1/../../../arm-none-eabi/lib/thumb/v6-m/nofp/libg.a(lib_a-mallocr.o) (_sbrk_r)
/usr/lib/gcc/arm-none-eabi/10.3.1/../../../arm-none-eabi/lib/thumb/v6-m/nofp/libg.a(lib_a-strcat.o)
                              CMakeFiles/telitHost.dir/telitHost.c.obj (strcat)
/usr/lib/gcc/arm-none-eabi/10.3.1/../../../arm-none-eabi/lib/thumb/v6-m/nofp/libg.a(lib_a-strchr.o)
                              CMakeFiles/telitHost.dir/telitHost.c.obj (strchr)
/usr/lib/gcc/arm-none-eabi/10.3.1/../../../arm-none-eabi/lib/thumb/v6-m/nofp/libg.a(lib_a-strcpy.o)
                              /usr/lib/gcc/arm-none-eabi/10.3.1/../../../arm-none-eabi/lib/thumb/v6-m/nofp/libg.a(lib_a-strcat.o) (strcpy)
/usr/lib/gcc/arm-none-eabi/10.3.1/../../../arm-none-eabi/lib/thumb/v6-m/nofp/libg.a(lib_a-strlen-stub.o)
                              CMakeFiles/telitHost.dir/telitHost.c.obj (strlen)
/usr/lib/gcc/arm-none-eabi/10.3.1/../../../arm-none-eabi/lib/thumb/v6-m/nofp/libg.a(lib_a-strncpy.o)
                              CMakeFiles/telitHost.dir/telitHost.c.obj (strncpy)
/usr/lib/gcc/arm-none-eabi/10.3.1/../../../arm-none-eabi/lib/thumb/v6-m/nofp/libg.a(lib_a-strstr.o)
                              CMakeFiles/telitHost.dir/telitHost.c.obj (strstr)
/usr/lib/gcc/arm-none-eabi/10.3.1/../../../arm-none-eabi/lib/thumb/v6-m/nofp/libg.a(lib_a-strtol.o)
                              /usr/lib/gcc/arm-none-eabi/10.3.1/../../../arm-none-eabi/lib/thumb/v6-m/nofp/libg.a(lib_a-atoi.o) (_strtol_r)
/usr/lib/gcc/arm-none-eabi/10.3.1/../../../arm-none-eabi/lib/thumb/v6-m/nofp/libg.a(lib_a-__atexit.o)
                              /usr/lib/gcc/arm-none-eabi/10.3.1/../../../arm-none-eabi/lib/thumb/v6-m/nofp/libg.a(lib_a-atexit.o) (__register_exitproc)
/usr/lib/gcc/arm-none-eabi/10.3.1/../../../arm-none-eabi/lib/thumb/v6-m/nofp/libg.a(lib_a-errno.o)
                              /usr/lib/gcc/arm-none-eabi/10.3.1/../../../arm-none-eabi/lib/thumb/v6-m/nofp/libg.a(lib_a-strtol.o) (__errno)
/usr/lib/gcc/arm-none-eabi/10.3.1/../../../arm-none-eabi/lib/thumb/v6-m/nofp/libg.a(lib_a-freer.o)
                              /usr/lib/gcc/arm-none-eabi/10.3.1/../../../arm-none-eabi/lib/thumb/v6-m/nofp/libg.a(lib_a-malloc.o) (_free_r)
/usr/lib/gcc/arm-none-eabi/10.3.1/../../../arm-none-eabi/lib/thumb/v6-m/nofp/libg.a(lib_a-memcmp.o)
                              /usr/lib/gcc/arm-none-eabi/10.3.1/../../../arm-none-eabi/lib/thumb/v6-m/nofp/libg.a(lib_a-strstr.o) (memcmp)
/usr/lib/gcc/arm-none-eabi/10.3.1/../../../arm-none-eabi/lib/thumb/v6-m/nofp/libg.a(lib_a-reent.o)
                              /usr/lib/gcc/arm-none-eabi/10.3.1/../../../arm-none-eabi/lib/thumb/v6-m/nofp/libg.a(lib_a-sbrkr.o) (errno)
/usr/lib/gcc/arm-none-eabi/10.3.1/../../../arm-none-eabi/lib/thumb/v6-m/nofp/libg.a(lib_a-strnlen.o)
                              /usr/lib/gcc/arm-none-eabi/10.3.1/../../../arm-none-eabi/lib/thumb/v6-m/nofp/libg.a(lib_a-strstr.o) (strnlen)

Discarded input sections

 .text          0x0000000000000000        0x0 /usr/lib/gcc/arm-none-eabi/10.3.1/thumb/v6-m/nofp/crti.o
 .data          0x0000000000000000        0x0 /usr/lib/gcc/arm-none-eabi/10.3.1/thumb/v6-m/nofp/crti.o
 .bss           0x0000000000000000        0x0 /usr/lib/gcc/arm-none-eabi/10.3.1/thumb/v6-m/nofp/crti.o
 .data          0x0000000000000000        0x4 /usr/lib/gcc/arm-none-eabi/10.3.1/thumb/v6-m/nofp/crtbegin.o
 .rodata        0x0000000000000000       0x24 /usr/lib/gcc/arm-none-eabi/10.3.1/thumb/v6-m/nofp/crtbegin.o
 .fini_array    0x0000000000000000        0x4 /usr/lib/gcc/arm-none-eabi/10.3.1/thumb/v6-m/nofp/crtbegin.o
 .text          0x0000000000000000       0x74 /usr/lib/gcc/arm-none-eabi/10.3.1/../../../arm-none-eabi/lib/thumb/v6-m/nofp/crt0.o
 .data          0x0000000000000000        0x0 /usr/lib/gcc/arm-none-eabi/10.3.1/../../../arm-none-eabi/lib/thumb/v6-m/nofp/crt0.o
 .bss           0x0000000000000000        0x0 /usr/lib/gcc/arm-none-eabi/10.3.1/../../../arm-none-eabi/lib/thumb/v6-m/nofp/crt0.o
 .ARM.extab     0x0000000000000000        0x0 /usr/lib/gcc/arm-none-eabi/10.3.1/../../../arm-none-eabi/lib/thumb/v6-m/nofp/crt0.o
 .ARM.exidx     0x0000000000000000       0x10 /usr/lib/gcc/arm-none-eabi/10.3.1/../../../arm-none-eabi/lib/thumb/v6-m/nofp/crt0.o
 .debug_line    0x0000000000000000       0x8c /usr/lib/gcc/arm-none-eabi/10.3.1/../../../arm-none-eabi/lib/thumb/v6-m/nofp/crt0.o
 .debug_info    0x0000000000000000       0x26 /usr/lib/gcc/arm-none-eabi/10.3.1/../../../arm-none-eabi/lib/thumb/v6-m/nofp/crt0.o
 .debug_abbrev  0x0000000000000000       0x14 /usr/lib/gcc/arm-none-eabi/10.3.1/../../../arm-none-eabi/lib/thumb/v6-m/nofp/crt0.o
 .debug_aranges
                0x0000000000000000       0x20 /usr/lib/gcc/arm-none-eabi/10.3.1/../../../arm-none-eabi/lib/thumb/v6-m/nofp/crt0.o
 .debug_str     0x0000000000000000       0x94 /usr/lib/gcc/arm-none-eabi/10.3.1/../../../arm-none-eabi/lib/thumb/v6-m/nofp/crt0.o
 .ARM.attributes
                0x0000000000000000       0x1b /usr/lib/gcc/arm-none-eabi/10.3.1/../../../arm-none-eabi/lib/thumb/v6-m/nofp/crt0.o
 .text          0x0000000000000000        0x0 CMakeFiles/telitHost.dir/telitHost.c.obj
 .data          0x0000000000000000        0x0 CMakeFiles/telitHost.dir/telitHost.c.obj
 .bss           0x0000000000000000        0x0 CMakeFiles/telitHost.dir/telitHost.c.obj
 .text.mqtt_read
                0x0000000000000000      0x1b4 CMakeFiles/telitHost.dir/telitHost.c.obj
 .bss.concat_buffer
                0x0000000000000000      0x104 CMakeFiles/telitHost.dir/telitHost.c.obj
 .rodata.end_message
                0x0000000000000000        0x3 CMakeFiles/telitHost.dir/telitHost.c.obj
 .rodata.start_message
                0x0000000000000000        0x3 CMakeFiles/telitHost.dir/telitHost.c.obj
 .text          0x0000000000000000        0x0 CMakeFiles/telitHost.dir/mnt/LinuxApps/PicoSDK/pico-sdk/src/rp2_common/pico_stdlib/stdlib.c.obj
 .data          0x0000000000000000        0x0 CMakeFiles/telitHost.dir/mnt/LinuxApps/PicoSDK/pico-sdk/src/rp2_common/pico_stdlib/stdlib.c.obj
 .bss           0x0000000000000000        0x0 CMakeFiles/telitHost.dir/mnt/LinuxApps/PicoSDK/pico-sdk/src/rp2_common/pico_stdlib/stdlib.c.obj
 .text.set_sys_clock_48mhz
                0x0000000000000000       0x40 CMakeFiles/telitHost.dir/mnt/LinuxApps/PicoSDK/pico-sdk/src/rp2_common/pico_stdlib/stdlib.c.obj
 .text.set_sys_clock_pll
                0x0000000000000000       0x78 CMakeFiles/telitHost.dir/mnt/LinuxApps/PicoSDK/pico-sdk/src/rp2_common/pico_stdlib/stdlib.c.obj
 .text.check_sys_clock_khz
                0x0000000000000000       0xb0 CMakeFiles/telitHost.dir/mnt/LinuxApps/PicoSDK/pico-sdk/src/rp2_common/pico_stdlib/stdlib.c.obj
 .text.setup_default_uart
                0x0000000000000000       0x2c CMakeFiles/telitHost.dir/mnt/LinuxApps/PicoSDK/pico-sdk/src/rp2_common/pico_stdlib/stdlib.c.obj
 .binary_info.__bi_ptr102
                0x0000000000000000        0x4 CMakeFiles/telitHost.dir/mnt/LinuxApps/PicoSDK/pico-sdk/src/rp2_common/pico_stdlib/stdlib.c.obj
 .rodata.__bi_102.0
                0x0000000000000000        0x8 CMakeFiles/telitHost.dir/mnt/LinuxApps/PicoSDK/pico-sdk/src/rp2_common/pico_stdlib/stdlib.c.obj
 .debug_info    0x0000000000000000      0x751 CMakeFiles/telitHost.dir/mnt/LinuxApps/PicoSDK/pico-sdk/src/rp2_common/pico_stdlib/stdlib.c.obj
 .debug_abbrev  0x0000000000000000      0x1e9 CMakeFiles/telitHost.dir/mnt/LinuxApps/PicoSDK/pico-sdk/src/rp2_common/pico_stdlib/stdlib.c.obj
 .debug_loc     0x0000000000000000      0x2d7 CMakeFiles/telitHost.dir/mnt/LinuxApps/PicoSDK/pico-sdk/src/rp2_common/pico_stdlib/stdlib.c.obj
 .debug_aranges
                0x0000000000000000       0x38 CMakeFiles/telitHost.dir/mnt/LinuxApps/PicoSDK/pico-sdk/src/rp2_common/pico_stdlib/stdlib.c.obj
 .debug_ranges  0x0000000000000000       0x98 CMakeFiles/telitHost.dir/mnt/LinuxApps/PicoSDK/pico-sdk/src/rp2_common/pico_stdlib/stdlib.c.obj
 .debug_line    0x0000000000000000      0x574 CMakeFiles/telitHost.dir/mnt/LinuxApps/PicoSDK/pico-sdk/src/rp2_common/pico_stdlib/stdlib.c.obj
 .debug_str     0x0000000000000000      0x51c CMakeFiles/telitHost.dir/mnt/LinuxApps/PicoSDK/pico-sdk/src/rp2_common/pico_stdlib/stdlib.c.obj
 .comment       0x0000000000000000       0x34 CMakeFiles/telitHost.dir/mnt/LinuxApps/PicoSDK/pico-sdk/src/rp2_common/pico_stdlib/stdlib.c.obj
 .debug_frame   0x0000000000000000       0x90 CMakeFiles/telitHost.dir/mnt/LinuxApps/PicoSDK/pico-sdk/src/rp2_common/pico_stdlib/stdlib.c.obj
 .ARM.attributes
                0x0000000000000000       0x2c CMakeFiles/telitHost.dir/mnt/LinuxApps/PicoSDK/pico-sdk/src/rp2_common/pico_stdlib/stdlib.c.obj
 .text          0x0000000000000000        0x0 CMakeFiles/telitHost.dir/mnt/LinuxApps/PicoSDK/pico-sdk/src/rp2_common/hardware_gpio/gpio.c.obj
 .data          0x0000000000000000        0x0 CMakeFiles/telitHost.dir/mnt/LinuxApps/PicoSDK/pico-sdk/src/rp2_common/hardware_gpio/gpio.c.obj
 .bss           0x0000000000000000        0x0 CMakeFiles/telitHost.dir/mnt/LinuxApps/PicoSDK/pico-sdk/src/rp2_common/hardware_gpio/gpio.c.obj
 .text.gpio_get_pad
                0x0000000000000000       0x28 CMakeFiles/telitHost.dir/mnt/LinuxApps/PicoSDK/pico-sdk/src/rp2_common/hardware_gpio/gpio.c.obj
 .text.gpio_get_function
                0x0000000000000000       0x14 CMakeFiles/telitHost.dir/mnt/LinuxApps/PicoSDK/pico-sdk/src/rp2_common/hardware_gpio/gpio.c.obj
 .text.gpio_set_irqover
                0x0000000000000000       0x24 CMakeFiles/telitHost.dir/mnt/LinuxApps/PicoSDK/pico-sdk/src/rp2_common/hardware_gpio/gpio.c.obj
 .text.gpio_set_inover
                0x0000000000000000       0x24 CMakeFiles/telitHost.dir/mnt/LinuxApps/PicoSDK/pico-sdk/src/rp2_common/hardware_gpio/gpio.c.obj
 .text.gpio_set_outover
                0x0000000000000000       0x24 CMakeFiles/telitHost.dir/mnt/LinuxApps/PicoSDK/pico-sdk/src/rp2_common/hardware_gpio/gpio.c.obj
 .text.gpio_set_oeover
                0x0000000000000000       0x24 CMakeFiles/telitHost.dir/mnt/LinuxApps/PicoSDK/pico-sdk/src/rp2_common/hardware_gpio/gpio.c.obj
 .text.gpio_set_input_hysteresis_enabled
                0x0000000000000000       0x30 CMakeFiles/telitHost.dir/mnt/LinuxApps/PicoSDK/pico-sdk/src/rp2_common/hardware_gpio/gpio.c.obj
 .text.gpio_is_input_hysteresis_enabled
                0x0000000000000000       0x1c CMakeFiles/telitHost.dir/mnt/LinuxApps/PicoSDK/pico-sdk/src/rp2_common/hardware_gpio/gpio.c.obj
 .text.gpio_set_slew_rate
                0x0000000000000000       0x20 CMakeFiles/telitHost.dir/mnt/LinuxApps/PicoSDK/pico-sdk/src/rp2_common/hardware_gpio/gpio.c.obj
 .text.gpio_get_slew_rate
                0x0000000000000000       0x14 CMakeFiles/telitHost.dir/mnt/LinuxApps/PicoSDK/pico-sdk/src/rp2_common/hardware_gpio/gpio.c.obj
 .text.gpio_set_drive_strength
                0x0000000000000000       0x20 CMakeFiles/telitHost.dir/mnt/LinuxApps/PicoSDK/pico-sdk/src/rp2_common/hardware_gpio/gpio.c.obj
 .text.gpio_get_drive_strength
                0x0000000000000000       0x18 CMakeFiles/telitHost.dir/mnt/LinuxApps/PicoSDK/pico-sdk/src/rp2_common/hardware_gpio/gpio.c.obj
 .text.gpio_set_dormant_irq_enabled
                0x0000000000000000       0x10 CMakeFiles/telitHost.dir/mnt/LinuxApps/PicoSDK/pico-sdk/src/rp2_common/hardware_gpio/gpio.c.obj
 .text.gpio_set_input_enabled
                0x0000000000000000       0x30 CMakeFiles/telitHost.dir/mnt/LinuxApps/PicoSDK/pico-sdk/src/rp2_common/hardware_gpio/gpio.c.obj
 .text.gpio_init_mask
                0x0000000000000000       0x1e CMakeFiles/telitHost.dir/mnt/LinuxApps/PicoSDK/pico-sdk/src/rp2_common/hardware_gpio/gpio.c.obj
 .text.gpio_debug_pins_init
                0x0000000000000000       0x18 CMakeFiles/telitHost.dir/mnt/LinuxApps/PicoSDK/pico-sdk/src/rp2_common/hardware_gpio/gpio.c.obj
 .text          0x0000000000000000        0x0 CMakeFiles/telitHost.dir/mnt/LinuxApps/PicoSDK/pico-sdk/src/rp2_common/hardware_claim/claim.c.obj
 .data          0x0000000000000000        0x0 CMakeFiles/telitHost.dir/mnt/LinuxApps/PicoSDK/pico-sdk/src/rp2_common/hardware_claim/claim.c.obj
 .bss           0x0000000000000000        0x0 CMakeFiles/telitHost.dir/mnt/LinuxApps/PicoSDK/pico-sdk/src/rp2_common/hardware_claim/claim.c.obj
 .text.hw_is_claimed
                0x0000000000000000       0x16 CMakeFiles/telitHost.dir/mnt/LinuxApps/PicoSDK/pico-sdk/src/rp2_common/hardware_claim/claim.c.obj
 .rodata.hw_claim_clear.str1.4
                0x0000000000000000       0x66 CMakeFiles/telitHost.dir/mnt/LinuxApps/PicoSDK/pico-sdk/src/rp2_common/hardware_claim/claim.c.obj
 .text.hw_claim_clear
                0x0000000000000000       0x40 CMakeFiles/telitHost.dir/mnt/LinuxApps/PicoSDK/pico-sdk/src/rp2_common/hardware_claim/claim.c.obj
 .rodata.__func__.0
                0x0000000000000000        0xf CMakeFiles/telitHost.dir/mnt/LinuxApps/PicoSDK/pico-sdk/src/rp2_common/hardware_claim/claim.c.obj
 .text          0x0000000000000000        0x0 CMakeFiles/telitHost.dir/mnt/LinuxApps/PicoSDK/pico-sdk/src/rp2_common/pico_platform/platform.c.obj
 .data          0x0000000000000000        0x0 CMakeFiles/telitHost.dir/mnt/LinuxApps/PicoSDK/pico-sdk/src/rp2_common/pico_platform/platform.c.obj
 .bss           0x0000000000000000        0x0 CMakeFiles/telitHost.dir/mnt/LinuxApps/PicoSDK/pico-sdk/src/rp2_common/pico_platform/platform.c.obj
 .rodata.rp2040_chip_version.str1.4
                0x0000000000000000       0x7d CMakeFiles/telitHost.dir/mnt/LinuxApps/PicoSDK/pico-sdk/src/rp2_common/pico_platform/platform.c.obj
 .text.rp2040_chip_version
                0x0000000000000000       0x4c CMakeFiles/telitHost.dir/mnt/LinuxApps/PicoSDK/pico-sdk/src/rp2_common/pico_platform/platform.c.obj
 .rodata.__func__.0
                0x0000000000000000       0x14 CMakeFiles/telitHost.dir/mnt/LinuxApps/PicoSDK/pico-sdk/src/rp2_common/pico_platform/platform.c.obj
 .text          0x0000000000000000        0x0 CMakeFiles/telitHost.dir/mnt/LinuxApps/PicoSDK/pico-sdk/src/rp2_common/hardware_sync/sync.c.obj
 .data          0x0000000000000000        0x0 CMakeFiles/telitHost.dir/mnt/LinuxApps/PicoSDK/pico-sdk/src/rp2_common/hardware_sync/sync.c.obj
 .bss           0x0000000000000000        0x0 CMakeFiles/telitHost.dir/mnt/LinuxApps/PicoSDK/pico-sdk/src/rp2_common/hardware_sync/sync.c.obj
 .rodata.spin_lock_init.str1.4
                0x0000000000000000       0x60 CMakeFiles/telitHost.dir/mnt/LinuxApps/PicoSDK/pico-sdk/src/rp2_common/hardware_sync/sync.c.obj
 .text.spin_lock_init
                0x0000000000000000       0x34 CMakeFiles/telitHost.dir/mnt/LinuxApps/PicoSDK/pico-sdk/src/rp2_common/hardware_sync/sync.c.obj
 .rodata.spin_lock_claim.str1.4
                0x0000000000000000       0x1f CMakeFiles/telitHost.dir/mnt/LinuxApps/PicoSDK/pico-sdk/src/rp2_common/hardware_sync/sync.c.obj
 .text.spin_lock_claim
                0x0000000000000000       0x18 CMakeFiles/telitHost.dir/mnt/LinuxApps/PicoSDK/pico-sdk/src/rp2_common/hardware_sync/sync.c.obj
 .text.spin_lock_claim_mask
                0x0000000000000000       0x1e CMakeFiles/telitHost.dir/mnt/LinuxApps/PicoSDK/pico-sdk/src/rp2_common/hardware_sync/sync.c.obj
 .text.spin_lock_unclaim
                0x0000000000000000       0x24 CMakeFiles/telitHost.dir/mnt/LinuxApps/PicoSDK/pico-sdk/src/rp2_common/hardware_sync/sync.c.obj
 .text.spin_lock_is_claimed
                0x0000000000000000       0x10 CMakeFiles/telitHost.dir/mnt/LinuxApps/PicoSDK/pico-sdk/src/rp2_common/hardware_sync/sync.c.obj
 .rodata.__func__.0
                0x0000000000000000        0xf CMakeFiles/telitHost.dir/mnt/LinuxApps/PicoSDK/pico-sdk/src/rp2_common/hardware_sync/sync.c.obj
 .text          0x0000000000000000        0x0 CMakeFiles/telitHost.dir/mnt/LinuxApps/PicoSDK/pico-sdk/src/rp2_common/hardware_uart/uart.c.obj
 .data          0x0000000000000000        0x0 CMakeFiles/telitHost.dir/mnt/LinuxApps/PicoSDK/pico-sdk/src/rp2_common/hardware_uart/uart.c.obj
 .bss           0x0000000000000000        0x0 CMakeFiles/telitHost.dir/mnt/LinuxApps/PicoSDK/pico-sdk/src/rp2_common/hardware_uart/uart.c.obj
 .text.uart_deinit
                0x0000000000000000       0x20 CMakeFiles/telitHost.dir/mnt/LinuxApps/PicoSDK/pico-sdk/src/rp2_common/hardware_uart/uart.c.obj
 .text.uart_is_readable_within_us
                0x0000000000000000       0x20 CMakeFiles/telitHost.dir/mnt/LinuxApps/PicoSDK/pico-sdk/src/rp2_common/hardware_uart/uart.c.obj
 .text          0x0000000000000000        0x0 CMakeFiles/telitHost.dir/mnt/LinuxApps/PicoSDK/pico-sdk/src/rp2_common/hardware_divider/divider.S.obj
 .data          0x0000000000000000        0x0 CMakeFiles/telitHost.dir/mnt/LinuxApps/PicoSDK/pico-sdk/src/rp2_common/hardware_divider/divider.S.obj
 .bss           0x0000000000000000        0x0 CMakeFiles/telitHost.dir/mnt/LinuxApps/PicoSDK/pico-sdk/src/rp2_common/hardware_divider/divider.S.obj
 .text.hw_divider_divmod_s32
                0x0000000000000000       0x18 CMakeFiles/telitHost.dir/mnt/LinuxApps/PicoSDK/pico-sdk/src/rp2_common/hardware_divider/divider.S.obj
 .text.hw_divider_divmod_u32
                0x0000000000000000       0x18 CMakeFiles/telitHost.dir/mnt/LinuxApps/PicoSDK/pico-sdk/src/rp2_common/hardware_divider/divider.S.obj
 .text.hw_divider_save_state
                0x0000000000000000       0x1c CMakeFiles/telitHost.dir/mnt/LinuxApps/PicoSDK/pico-sdk/src/rp2_common/hardware_divider/divider.S.obj
 .text.hw_divider_restore_state
                0x0000000000000000       0x14 CMakeFiles/telitHost.dir/mnt/LinuxApps/PicoSDK/pico-sdk/src/rp2_common/hardware_divider/divider.S.obj
 .debug_line    0x0000000000000000       0xd0 CMakeFiles/telitHost.dir/mnt/LinuxApps/PicoSDK/pico-sdk/src/rp2_common/hardware_divider/divider.S.obj
 .debug_info    0x0000000000000000       0x22 CMakeFiles/telitHost.dir/mnt/LinuxApps/PicoSDK/pico-sdk/src/rp2_common/hardware_divider/divider.S.obj
 .debug_abbrev  0x0000000000000000       0x12 CMakeFiles/telitHost.dir/mnt/LinuxApps/PicoSDK/pico-sdk/src/rp2_common/hardware_divider/divider.S.obj
 .debug_aranges
                0x0000000000000000       0x38 CMakeFiles/telitHost.dir/mnt/LinuxApps/PicoSDK/pico-sdk/src/rp2_common/hardware_divider/divider.S.obj
 .debug_str     0x0000000000000000       0x8f CMakeFiles/telitHost.dir/mnt/LinuxApps/PicoSDK/pico-sdk/src/rp2_common/hardware_divider/divider.S.obj
 .debug_ranges  0x0000000000000000       0x30 CMakeFiles/telitHost.dir/mnt/LinuxApps/PicoSDK/pico-sdk/src/rp2_common/hardware_divider/divider.S.obj
 .ARM.attributes
                0x0000000000000000       0x22 CMakeFiles/telitHost.dir/mnt/LinuxApps/PicoSDK/pico-sdk/src/rp2_common/hardware_divider/divider.S.obj
 .text          0x0000000000000000        0x0 CMakeFiles/telitHost.dir/mnt/LinuxApps/PicoSDK/pico-sdk/src/common/pico_time/time.c.obj
 .data          0x0000000000000000        0x0 CMakeFiles/telitHost.dir/mnt/LinuxApps/PicoSDK/pico-sdk/src/common/pico_time/time.c.obj
 .bss           0x0000000000000000        0x0 CMakeFiles/telitHost.dir/mnt/LinuxApps/PicoSDK/pico-sdk/src/common/pico_time/time.c.obj
 .text.repeating_timer_callback
                0x0000000000000000       0x40 CMakeFiles/telitHost.dir/mnt/LinuxApps/PicoSDK/pico-sdk/src/common/pico_time/time.c.obj
 .text.alarm_pool_dump_key
                0x0000000000000000       0x70 CMakeFiles/telitHost.dir/mnt/LinuxApps/PicoSDK/pico-sdk/src/common/pico_time/time.c.obj
 .text.alarm_pool_create
                0x0000000000000000       0x40 CMakeFiles/telitHost.dir/mnt/LinuxApps/PicoSDK/pico-sdk/src/common/pico_time/time.c.obj
 .rodata.alarm_pool_destroy.str1.4
                0x0000000000000000       0x30 CMakeFiles/telitHost.dir/mnt/LinuxApps/PicoSDK/pico-sdk/src/common/pico_time/time.c.obj
 .text.alarm_pool_destroy
                0x0000000000000000       0x78 CMakeFiles/telitHost.dir/mnt/LinuxApps/PicoSDK/pico-sdk/src/common/pico_time/time.c.obj
 .text.alarm_pool_hardware_alarm_num
                0x0000000000000000        0x4 CMakeFiles/telitHost.dir/mnt/LinuxApps/PicoSDK/pico-sdk/src/common/pico_time/time.c.obj
 .text.alarm_pool_add_repeating_timer_us
                0x0000000000000000       0x9c CMakeFiles/telitHost.dir/mnt/LinuxApps/PicoSDK/pico-sdk/src/common/pico_time/time.c.obj
 .text.cancel_repeating_timer
                0x0000000000000000       0x1a CMakeFiles/telitHost.dir/mnt/LinuxApps/PicoSDK/pico-sdk/src/common/pico_time/time.c.obj
 .text.alarm_pool_dump
                0x0000000000000000       0x34 CMakeFiles/telitHost.dir/mnt/LinuxApps/PicoSDK/pico-sdk/src/common/pico_time/time.c.obj
 .rodata.__func__.0
                0x0000000000000000       0x19 CMakeFiles/telitHost.dir/mnt/LinuxApps/PicoSDK/pico-sdk/src/common/pico_time/time.c.obj
 .rodata.__func__.2
                0x0000000000000000       0x13 CMakeFiles/telitHost.dir/mnt/LinuxApps/PicoSDK/pico-sdk/src/common/pico_time/time.c.obj
 .rodata.at_the_end_of_time
                0x0000000000000000        0x8 CMakeFiles/telitHost.dir/mnt/LinuxApps/PicoSDK/pico-sdk/src/common/pico_time/time.c.obj
 .rodata.nil_time
                0x0000000000000000        0x8 CMakeFiles/telitHost.dir/mnt/LinuxApps/PicoSDK/pico-sdk/src/common/pico_time/time.c.obj
 .text          0x0000000000000000        0x0 CMakeFiles/telitHost.dir/mnt/LinuxApps/PicoSDK/pico-sdk/src/common/pico_time/timeout_helper.c.obj
 .data          0x0000000000000000        0x0 CMakeFiles/telitHost.dir/mnt/LinuxApps/PicoSDK/pico-sdk/src/common/pico_time/timeout_helper.c.obj
 .bss           0x0000000000000000        0x0 CMakeFiles/telitHost.dir/mnt/LinuxApps/PicoSDK/pico-sdk/src/common/pico_time/timeout_helper.c.obj
 .rodata.check_per_iteration_timeout_us.str1.4
                0x0000000000000000       0x66 CMakeFiles/telitHost.dir/mnt/LinuxApps/PicoSDK/pico-sdk/src/common/pico_time/timeout_helper.c.obj
 .text.check_per_iteration_timeout_us
                0x0000000000000000       0x8c CMakeFiles/telitHost.dir/mnt/LinuxApps/PicoSDK/pico-sdk/src/common/pico_time/timeout_helper.c.obj
 .text.check_single_timeout_us
                0x0000000000000000       0x2c CMakeFiles/telitHost.dir/mnt/LinuxApps/PicoSDK/pico-sdk/src/common/pico_time/timeout_helper.c.obj
 .text.init_single_timeout_until
                0x0000000000000000        0xc CMakeFiles/telitHost.dir/mnt/LinuxApps/PicoSDK/pico-sdk/src/common/pico_time/timeout_helper.c.obj
 .text.init_per_iteration_timeout_us
                0x0000000000000000       0x64 CMakeFiles/telitHost.dir/mnt/LinuxApps/PicoSDK/pico-sdk/src/common/pico_time/timeout_helper.c.obj
 .rodata.__func__.0
                0x0000000000000000       0x15 CMakeFiles/telitHost.dir/mnt/LinuxApps/PicoSDK/pico-sdk/src/common/pico_time/timeout_helper.c.obj
 .debug_info    0x0000000000000000      0x7e3 CMakeFiles/telitHost.dir/mnt/LinuxApps/PicoSDK/pico-sdk/src/common/pico_time/timeout_helper.c.obj
 .debug_abbrev  0x0000000000000000      0x243 CMakeFiles/telitHost.dir/mnt/LinuxApps/PicoSDK/pico-sdk/src/common/pico_time/timeout_helper.c.obj
 .debug_loc     0x0000000000000000      0x464 CMakeFiles/telitHost.dir/mnt/LinuxApps/PicoSDK/pico-sdk/src/common/pico_time/timeout_helper.c.obj
 .debug_aranges
                0x0000000000000000       0x38 CMakeFiles/telitHost.dir/mnt/LinuxApps/PicoSDK/pico-sdk/src/common/pico_time/timeout_helper.c.obj
 .debug_ranges  0x0000000000000000      0x148 CMakeFiles/telitHost.dir/mnt/LinuxApps/PicoSDK/pico-sdk/src/common/pico_time/timeout_helper.c.obj
 .debug_line    0x0000000000000000      0x4bf CMakeFiles/telitHost.dir/mnt/LinuxApps/PicoSDK/pico-sdk/src/common/pico_time/timeout_helper.c.obj
 .debug_str     0x0000000000000000      0x3e0 CMakeFiles/telitHost.dir/mnt/LinuxApps/PicoSDK/pico-sdk/src/common/pico_time/timeout_helper.c.obj
 .comment       0x0000000000000000       0x34 CMakeFiles/telitHost.dir/mnt/LinuxApps/PicoSDK/pico-sdk/src/common/pico_time/timeout_helper.c.obj
 .debug_frame   0x0000000000000000       0x6c CMakeFiles/telitHost.dir/mnt/LinuxApps/PicoSDK/pico-sdk/src/common/pico_time/timeout_helper.c.obj
 .ARM.attributes
                0x0000000000000000       0x2c CMakeFiles/telitHost.dir/mnt/LinuxApps/PicoSDK/pico-sdk/src/common/pico_time/timeout_helper.c.obj
 .text          0x0000000000000000        0x0 CMakeFiles/telitHost.dir/mnt/LinuxApps/PicoSDK/pico-sdk/src/rp2_common/hardware_timer/timer.c.obj
 .data          0x0000000000000000        0x0 CMakeFiles/telitHost.dir/mnt/LinuxApps/PicoSDK/pico-sdk/src/rp2_common/hardware_timer/timer.c.obj
 .bss           0x0000000000000000        0x0 CMakeFiles/telitHost.dir/mnt/LinuxApps/PicoSDK/pico-sdk/src/rp2_common/hardware_timer/timer.c.obj
 .text.hardware_alarm_unclaim
                0x0000000000000000       0x10 CMakeFiles/telitHost.dir/mnt/LinuxApps/PicoSDK/pico-sdk/src/rp2_common/hardware_timer/timer.c.obj
 .text.hardware_alarm_is_claimed
                0x0000000000000000       0x10 CMakeFiles/telitHost.dir/mnt/LinuxApps/PicoSDK/pico-sdk/src/rp2_common/hardware_timer/timer.c.obj
 .text.busy_wait_us_32
                0x0000000000000000       0x24 CMakeFiles/telitHost.dir/mnt/LinuxApps/PicoSDK/pico-sdk/src/rp2_common/hardware_timer/timer.c.obj
 .text.busy_wait_ms
                0x0000000000000000       0x30 CMakeFiles/telitHost.dir/mnt/LinuxApps/PicoSDK/pico-sdk/src/rp2_common/hardware_timer/timer.c.obj
 .text          0x0000000000000000        0x0 CMakeFiles/telitHost.dir/mnt/LinuxApps/PicoSDK/pico-sdk/src/common/pico_sync/sem.c.obj
 .data          0x0000000000000000        0x0 CMakeFiles/telitHost.dir/mnt/LinuxApps/PicoSDK/pico-sdk/src/common/pico_sync/sem.c.obj
 .bss           0x0000000000000000        0x0 CMakeFiles/telitHost.dir/mnt/LinuxApps/PicoSDK/pico-sdk/src/common/pico_sync/sem.c.obj
 .text.sem_init
                0x0000000000000000       0x1e CMakeFiles/telitHost.dir/mnt/LinuxApps/PicoSDK/pico-sdk/src/common/pico_sync/sem.c.obj
 .time_critical.sem_available
                0x0000000000000000        0x6 CMakeFiles/telitHost.dir/mnt/LinuxApps/PicoSDK/pico-sdk/src/common/pico_sync/sem.c.obj
 .time_critical.sem_acquire_blocking
                0x0000000000000000       0x42 CMakeFiles/telitHost.dir/mnt/LinuxApps/PicoSDK/pico-sdk/src/common/pico_sync/sem.c.obj
 .time_critical.sem_acquire_block_until
                0x0000000000000000       0x60 CMakeFiles/telitHost.dir/mnt/LinuxApps/PicoSDK/pico-sdk/src/common/pico_sync/sem.c.obj
 .rodata.str1.4
                0x0000000000000000       0xcf CMakeFiles/telitHost.dir/mnt/LinuxApps/PicoSDK/pico-sdk/src/common/pico_sync/sem.c.obj
 .time_critical.sem_acquire_timeout_ms
                0x0000000000000000       0x74 CMakeFiles/telitHost.dir/mnt/LinuxApps/PicoSDK/pico-sdk/src/common/pico_sync/sem.c.obj
 .time_critical.sem_acquire_timeout_us
                0x0000000000000000       0x5c CMakeFiles/telitHost.dir/mnt/LinuxApps/PicoSDK/pico-sdk/src/common/pico_sync/sem.c.obj
 .time_critical.sem_release
                0x0000000000000000       0x4a CMakeFiles/telitHost.dir/mnt/LinuxApps/PicoSDK/pico-sdk/src/common/pico_sync/sem.c.obj
 .time_critical.sem_reset
                0x0000000000000000       0x68 CMakeFiles/telitHost.dir/mnt/LinuxApps/PicoSDK/pico-sdk/src/common/pico_sync/sem.c.obj
 .rodata.__func__.0
                0x0000000000000000        0xa CMakeFiles/telitHost.dir/mnt/LinuxApps/PicoSDK/pico-sdk/src/common/pico_sync/sem.c.obj
 .rodata.__func__.1
                0x0000000000000000       0x15 CMakeFiles/telitHost.dir/mnt/LinuxApps/PicoSDK/pico-sdk/src/common/pico_sync/sem.c.obj
 .debug_info    0x0000000000000000     0x11e1 CMakeFiles/telitHost.dir/mnt/LinuxApps/PicoSDK/pico-sdk/src/common/pico_sync/sem.c.obj
 .debug_abbrev  0x0000000000000000      0x329 CMakeFiles/telitHost.dir/mnt/LinuxApps/PicoSDK/pico-sdk/src/common/pico_sync/sem.c.obj
 .debug_loc     0x0000000000000000      0xa2b CMakeFiles/telitHost.dir/mnt/LinuxApps/PicoSDK/pico-sdk/src/common/pico_sync/sem.c.obj
 .debug_aranges
                0x0000000000000000       0x58 CMakeFiles/telitHost.dir/mnt/LinuxApps/PicoSDK/pico-sdk/src/common/pico_sync/sem.c.obj
 .debug_ranges  0x0000000000000000      0x5b0 CMakeFiles/telitHost.dir/mnt/LinuxApps/PicoSDK/pico-sdk/src/common/pico_sync/sem.c.obj
 .debug_line    0x0000000000000000      0x8e0 CMakeFiles/telitHost.dir/mnt/LinuxApps/PicoSDK/pico-sdk/src/common/pico_sync/sem.c.obj
 .debug_str     0x0000000000000000      0x4c3 CMakeFiles/telitHost.dir/mnt/LinuxApps/PicoSDK/pico-sdk/src/common/pico_sync/sem.c.obj
 .comment       0x0000000000000000       0x34 CMakeFiles/telitHost.dir/mnt/LinuxApps/PicoSDK/pico-sdk/src/common/pico_sync/sem.c.obj
 .debug_frame   0x0000000000000000       0xe4 CMakeFiles/telitHost.dir/mnt/LinuxApps/PicoSDK/pico-sdk/src/common/pico_sync/sem.c.obj
 .ARM.attributes
                0x0000000000000000       0x2c CMakeFiles/telitHost.dir/mnt/LinuxApps/PicoSDK/pico-sdk/src/common/pico_sync/sem.c.obj
 .text          0x0000000000000000        0x0 CMakeFiles/telitHost.dir/mnt/LinuxApps/PicoSDK/pico-sdk/src/common/pico_sync/lock_core.c.obj
 .data          0x0000000000000000        0x0 CMakeFiles/telitHost.dir/mnt/LinuxApps/PicoSDK/pico-sdk/src/common/pico_sync/lock_core.c.obj
 .bss           0x0000000000000000        0x0 CMakeFiles/telitHost.dir/mnt/LinuxApps/PicoSDK/pico-sdk/src/common/pico_sync/lock_core.c.obj
 .text          0x0000000000000000        0x0 CMakeFiles/telitHost.dir/mnt/LinuxApps/PicoSDK/pico-sdk/src/common/pico_sync/mutex.c.obj
 .data          0x0000000000000000        0x0 CMakeFiles/telitHost.dir/mnt/LinuxApps/PicoSDK/pico-sdk/src/common/pico_sync/mutex.c.obj
 .bss           0x0000000000000000        0x0 CMakeFiles/telitHost.dir/mnt/LinuxApps/PicoSDK/pico-sdk/src/common/pico_sync/mutex.c.obj
 .time_critical.recursive_mutex_enter_blocking
                0x0000000000000000       0x70 CMakeFiles/telitHost.dir/mnt/LinuxApps/PicoSDK/pico-sdk/src/common/pico_sync/mutex.c.obj
 .time_critical.recursive_mutex_try_enter
                0x0000000000000000       0x70 CMakeFiles/telitHost.dir/mnt/LinuxApps/PicoSDK/pico-sdk/src/common/pico_sync/mutex.c.obj
 .time_critical.mutex_enter_timeout_us
                0x0000000000000000       0x5c CMakeFiles/telitHost.dir/mnt/LinuxApps/PicoSDK/pico-sdk/src/common/pico_sync/mutex.c.obj
 .time_critical.recursive_mutex_enter_block_until
                0x0000000000000000       0xac CMakeFiles/telitHost.dir/mnt/LinuxApps/PicoSDK/pico-sdk/src/common/pico_sync/mutex.c.obj
 .time_critical.recursive_mutex_enter_timeout_ms
                0x0000000000000000       0x74 CMakeFiles/telitHost.dir/mnt/LinuxApps/PicoSDK/pico-sdk/src/common/pico_sync/mutex.c.obj
 .time_critical.recursive_mutex_enter_timeout_us
                0x0000000000000000       0x5c CMakeFiles/telitHost.dir/mnt/LinuxApps/PicoSDK/pico-sdk/src/common/pico_sync/mutex.c.obj
 .time_critical.recursive_mutex_exit
                0x0000000000000000       0x7c CMakeFiles/telitHost.dir/mnt/LinuxApps/PicoSDK/pico-sdk/src/common/pico_sync/mutex.c.obj
 .rodata.__func__.0
                0x0000000000000000       0x15 CMakeFiles/telitHost.dir/mnt/LinuxApps/PicoSDK/pico-sdk/src/common/pico_sync/mutex.c.obj
 .rodata.__func__.2
                0x0000000000000000       0x22 CMakeFiles/telitHost.dir/mnt/LinuxApps/PicoSDK/pico-sdk/src/common/pico_sync/mutex.c.obj
 .rodata.__func__.5
                0x0000000000000000       0x1a CMakeFiles/telitHost.dir/mnt/LinuxApps/PicoSDK/pico-sdk/src/common/pico_sync/mutex.c.obj
 .rodata.__func__.6
                0x0000000000000000       0x1f CMakeFiles/telitHost.dir/mnt/LinuxApps/PicoSDK/pico-sdk/src/common/pico_sync/mutex.c.obj
 .text          0x0000000000000000        0x0 CMakeFiles/telitHost.dir/mnt/LinuxApps/PicoSDK/pico-sdk/src/common/pico_sync/critical_section.c.obj
 .data          0x0000000000000000        0x0 CMakeFiles/telitHost.dir/mnt/LinuxApps/PicoSDK/pico-sdk/src/common/pico_sync/critical_section.c.obj
 .bss           0x0000000000000000        0x0 CMakeFiles/telitHost.dir/mnt/LinuxApps/PicoSDK/pico-sdk/src/common/pico_sync/critical_section.c.obj
 .text.critical_section_deinit
                0x0000000000000000       0x20 CMakeFiles/telitHost.dir/mnt/LinuxApps/PicoSDK/pico-sdk/src/common/pico_sync/critical_section.c.obj
 .text          0x0000000000000000        0x0 CMakeFiles/telitHost.dir/mnt/LinuxApps/PicoSDK/pico-sdk/src/common/pico_util/datetime.c.obj
 .data          0x0000000000000000        0x0 CMakeFiles/telitHost.dir/mnt/LinuxApps/PicoSDK/pico-sdk/src/common/pico_util/datetime.c.obj
 .bss           0x0000000000000000        0x0 CMakeFiles/telitHost.dir/mnt/LinuxApps/PicoSDK/pico-sdk/src/common/pico_util/datetime.c.obj
 .rodata.datetime_to_str.str1.4
                0x0000000000000000       0x19 CMakeFiles/telitHost.dir/mnt/LinuxApps/PicoSDK/pico-sdk/src/common/pico_util/datetime.c.obj
 .text.datetime_to_str
                0x0000000000000000       0x64 CMakeFiles/telitHost.dir/mnt/LinuxApps/PicoSDK/pico-sdk/src/common/pico_util/datetime.c.obj
 .rodata.str1.4
                0x0000000000000000       0xad CMakeFiles/telitHost.dir/mnt/LinuxApps/PicoSDK/pico-sdk/src/common/pico_util/datetime.c.obj
 .rodata.DATETIME_DOWS
                0x0000000000000000       0x1c CMakeFiles/telitHost.dir/mnt/LinuxApps/PicoSDK/pico-sdk/src/common/pico_util/datetime.c.obj
 .rodata.DATETIME_MONTHS
                0x0000000000000000       0x30 CMakeFiles/telitHost.dir/mnt/LinuxApps/PicoSDK/pico-sdk/src/common/pico_util/datetime.c.obj
 .debug_info    0x0000000000000000      0x202 CMakeFiles/telitHost.dir/mnt/LinuxApps/PicoSDK/pico-sdk/src/common/pico_util/datetime.c.obj
 .debug_abbrev  0x0000000000000000      0x10b CMakeFiles/telitHost.dir/mnt/LinuxApps/PicoSDK/pico-sdk/src/common/pico_util/datetime.c.obj
 .debug_loc     0x0000000000000000       0x7c CMakeFiles/telitHost.dir/mnt/LinuxApps/PicoSDK/pico-sdk/src/common/pico_util/datetime.c.obj
 .debug_aranges
                0x0000000000000000       0x20 CMakeFiles/telitHost.dir/mnt/LinuxApps/PicoSDK/pico-sdk/src/common/pico_util/datetime.c.obj
 .debug_ranges  0x0000000000000000       0x10 CMakeFiles/telitHost.dir/mnt/LinuxApps/PicoSDK/pico-sdk/src/common/pico_util/datetime.c.obj
 .debug_line    0x0000000000000000      0x139 CMakeFiles/telitHost.dir/mnt/LinuxApps/PicoSDK/pico-sdk/src/common/pico_util/datetime.c.obj
 .debug_str     0x0000000000000000      0x20c CMakeFiles/telitHost.dir/mnt/LinuxApps/PicoSDK/pico-sdk/src/common/pico_util/datetime.c.obj
 .comment       0x0000000000000000       0x34 CMakeFiles/telitHost.dir/mnt/LinuxApps/PicoSDK/pico-sdk/src/common/pico_util/datetime.c.obj
 .debug_frame   0x0000000000000000       0x38 CMakeFiles/telitHost.dir/mnt/LinuxApps/PicoSDK/pico-sdk/src/common/pico_util/datetime.c.obj
 .ARM.attributes
                0x0000000000000000       0x2c CMakeFiles/telitHost.dir/mnt/LinuxApps/PicoSDK/pico-sdk/src/common/pico_util/datetime.c.obj
 .text          0x0000000000000000        0x0 CMakeFiles/telitHost.dir/mnt/LinuxApps/PicoSDK/pico-sdk/src/common/pico_util/pheap.c.obj
 .data          0x0000000000000000        0x0 CMakeFiles/telitHost.dir/mnt/LinuxApps/PicoSDK/pico-sdk/src/common/pico_util/pheap.c.obj
 .bss           0x0000000000000000        0x0 CMakeFiles/telitHost.dir/mnt/LinuxApps/PicoSDK/pico-sdk/src/common/pico_util/pheap.c.obj
 .rodata.ph_dump_node.str1.4
                0x0000000000000000       0x15 CMakeFiles/telitHost.dir/mnt/LinuxApps/PicoSDK/pico-sdk/src/common/pico_util/pheap.c.obj
 .text.ph_dump_node
                0x0000000000000000       0xb4 CMakeFiles/telitHost.dir/mnt/LinuxApps/PicoSDK/pico-sdk/src/common/pico_util/pheap.c.obj
 .text.ph_create
                0x0000000000000000       0x2c CMakeFiles/telitHost.dir/mnt/LinuxApps/PicoSDK/pico-sdk/src/common/pico_util/pheap.c.obj
 .text.ph_destroy
                0x0000000000000000       0x12 CMakeFiles/telitHost.dir/mnt/LinuxApps/PicoSDK/pico-sdk/src/common/pico_util/pheap.c.obj
 .rodata.ph_dump.str1.4
                0x0000000000000000        0xf CMakeFiles/telitHost.dir/mnt/LinuxApps/PicoSDK/pico-sdk/src/common/pico_util/pheap.c.obj
 .text.ph_dump  0x0000000000000000       0x24 CMakeFiles/telitHost.dir/mnt/LinuxApps/PicoSDK/pico-sdk/src/common/pico_util/pheap.c.obj
 .text          0x0000000000000000        0x0 CMakeFiles/telitHost.dir/mnt/LinuxApps/PicoSDK/pico-sdk/src/common/pico_util/queue.c.obj
 .data          0x0000000000000000        0x0 CMakeFiles/telitHost.dir/mnt/LinuxApps/PicoSDK/pico-sdk/src/common/pico_util/queue.c.obj
 .bss           0x0000000000000000        0x0 CMakeFiles/telitHost.dir/mnt/LinuxApps/PicoSDK/pico-sdk/src/common/pico_util/queue.c.obj
 .rodata.queue_add_internal.str1.4
                0x0000000000000000       0x59 CMakeFiles/telitHost.dir/mnt/LinuxApps/PicoSDK/pico-sdk/src/common/pico_util/queue.c.obj
 .text.queue_add_internal
                0x0000000000000000       0xa0 CMakeFiles/telitHost.dir/mnt/LinuxApps/PicoSDK/pico-sdk/src/common/pico_util/queue.c.obj
 .text.queue_peek_internal
                0x0000000000000000       0x94 CMakeFiles/telitHost.dir/mnt/LinuxApps/PicoSDK/pico-sdk/src/common/pico_util/queue.c.obj
 .text.queue_remove_internal
                0x0000000000000000       0xa4 CMakeFiles/telitHost.dir/mnt/LinuxApps/PicoSDK/pico-sdk/src/common/pico_util/queue.c.obj
 .text.queue_init_with_spinlock
                0x0000000000000000       0x24 CMakeFiles/telitHost.dir/mnt/LinuxApps/PicoSDK/pico-sdk/src/common/pico_util/queue.c.obj
 .text.queue_free
                0x0000000000000000        0xa CMakeFiles/telitHost.dir/mnt/LinuxApps/PicoSDK/pico-sdk/src/common/pico_util/queue.c.obj
 .text.queue_try_add
                0x0000000000000000        0xa CMakeFiles/telitHost.dir/mnt/LinuxApps/PicoSDK/pico-sdk/src/common/pico_util/queue.c.obj
 .text.queue_try_remove
                0x0000000000000000        0xa CMakeFiles/telitHost.dir/mnt/LinuxApps/PicoSDK/pico-sdk/src/common/pico_util/queue.c.obj
 .text.queue_try_peek
                0x0000000000000000        0xa CMakeFiles/telitHost.dir/mnt/LinuxApps/PicoSDK/pico-sdk/src/common/pico_util/queue.c.obj
 .text.queue_add_blocking
                0x0000000000000000        0xa CMakeFiles/telitHost.dir/mnt/LinuxApps/PicoSDK/pico-sdk/src/common/pico_util/queue.c.obj
 .text.queue_remove_blocking
                0x0000000000000000        0xa CMakeFiles/telitHost.dir/mnt/LinuxApps/PicoSDK/pico-sdk/src/common/pico_util/queue.c.obj
 .text.queue_peek_blocking
                0x0000000000000000        0xa CMakeFiles/telitHost.dir/mnt/LinuxApps/PicoSDK/pico-sdk/src/common/pico_util/queue.c.obj
 .rodata.__func__.0
                0x0000000000000000        0xc CMakeFiles/telitHost.dir/mnt/LinuxApps/PicoSDK/pico-sdk/src/common/pico_util/queue.c.obj
 .debug_info    0x0000000000000000     0x11cf CMakeFiles/telitHost.dir/mnt/LinuxApps/PicoSDK/pico-sdk/src/common/pico_util/queue.c.obj
 .debug_abbrev  0x0000000000000000      0x31b CMakeFiles/telitHost.dir/mnt/LinuxApps/PicoSDK/pico-sdk/src/common/pico_util/queue.c.obj
 .debug_loc     0x0000000000000000      0xcdf CMakeFiles/telitHost.dir/mnt/LinuxApps/PicoSDK/pico-sdk/src/common/pico_util/queue.c.obj
 .debug_aranges
                0x0000000000000000       0x70 CMakeFiles/telitHost.dir/mnt/LinuxApps/PicoSDK/pico-sdk/src/common/pico_util/queue.c.obj
 .debug_ranges  0x0000000000000000      0x630 CMakeFiles/telitHost.dir/mnt/LinuxApps/PicoSDK/pico-sdk/src/common/pico_util/queue.c.obj
 .debug_line    0x0000000000000000      0x929 CMakeFiles/telitHost.dir/mnt/LinuxApps/PicoSDK/pico-sdk/src/common/pico_util/queue.c.obj
 .debug_str     0x0000000000000000      0x44c CMakeFiles/telitHost.dir/mnt/LinuxApps/PicoSDK/pico-sdk/src/common/pico_util/queue.c.obj
 .comment       0x0000000000000000       0x34 CMakeFiles/telitHost.dir/mnt/LinuxApps/PicoSDK/pico-sdk/src/common/pico_util/queue.c.obj
 .debug_frame   0x0000000000000000      0x12c CMakeFiles/telitHost.dir/mnt/LinuxApps/PicoSDK/pico-sdk/src/common/pico_util/queue.c.obj
 .ARM.attributes
                0x0000000000000000       0x2c CMakeFiles/telitHost.dir/mnt/LinuxApps/PicoSDK/pico-sdk/src/common/pico_util/queue.c.obj
 .text          0x0000000000000000        0x0 CMakeFiles/telitHost.dir/mnt/LinuxApps/PicoSDK/pico-sdk/src/rp2_common/pico_runtime/runtime.c.obj
 .data          0x0000000000000000        0x0 CMakeFiles/telitHost.dir/mnt/LinuxApps/PicoSDK/pico-sdk/src/rp2_common/pico_runtime/runtime.c.obj
 .bss           0x0000000000000000        0x0 CMakeFiles/telitHost.dir/mnt/LinuxApps/PicoSDK/pico-sdk/src/rp2_common/pico_runtime/runtime.c.obj
 .text.runtime_install_stack_guard
                0x0000000000000000       0x40 CMakeFiles/telitHost.dir/mnt/LinuxApps/PicoSDK/pico-sdk/src/rp2_common/pico_runtime/runtime.c.obj
 .rodata.panic_unsupported.str1.4
                0x0000000000000000        0xe CMakeFiles/telitHost.dir/mnt/LinuxApps/PicoSDK/pico-sdk/src/rp2_common/pico_runtime/runtime.c.obj
 .text.panic_unsupported
                0x0000000000000000        0xc CMakeFiles/telitHost.dir/mnt/LinuxApps/PicoSDK/pico-sdk/src/rp2_common/pico_runtime/runtime.c.obj
 .rodata.hard_assertion_failure.str1.4
                0x0000000000000000        0xc CMakeFiles/telitHost.dir/mnt/LinuxApps/PicoSDK/pico-sdk/src/rp2_common/pico_runtime/runtime.c.obj
 .text.hard_assertion_failure
                0x0000000000000000        0xc CMakeFiles/telitHost.dir/mnt/LinuxApps/PicoSDK/pico-sdk/src/rp2_common/pico_runtime/runtime.c.obj
 .text          0x0000000000000000        0x0 CMakeFiles/telitHost.dir/mnt/LinuxApps/PicoSDK/pico-sdk/src/rp2_common/hardware_clocks/clocks.c.obj
 .data          0x0000000000000000        0x0 CMakeFiles/telitHost.dir/mnt/LinuxApps/PicoSDK/pico-sdk/src/rp2_common/hardware_clocks/clocks.c.obj
 .bss           0x0000000000000000        0x0 CMakeFiles/telitHost.dir/mnt/LinuxApps/PicoSDK/pico-sdk/src/rp2_common/hardware_clocks/clocks.c.obj
 .text.clock_stop
                0x0000000000000000       0x2c CMakeFiles/telitHost.dir/mnt/LinuxApps/PicoSDK/pico-sdk/src/rp2_common/hardware_clocks/clocks.c.obj
 .rodata.clocks_handle_resus.str1.4
                0x0000000000000000       0x8b CMakeFiles/telitHost.dir/mnt/LinuxApps/PicoSDK/pico-sdk/src/rp2_common/hardware_clocks/clocks.c.obj
 .text.clocks_handle_resus
                0x0000000000000000       0x80 CMakeFiles/telitHost.dir/mnt/LinuxApps/PicoSDK/pico-sdk/src/rp2_common/hardware_clocks/clocks.c.obj
 .rodata.clocks_irq_handler.str1.4
                0x0000000000000000       0x17 CMakeFiles/telitHost.dir/mnt/LinuxApps/PicoSDK/pico-sdk/src/rp2_common/hardware_clocks/clocks.c.obj
 .text.clocks_irq_handler
                0x0000000000000000       0x2c CMakeFiles/telitHost.dir/mnt/LinuxApps/PicoSDK/pico-sdk/src/rp2_common/hardware_clocks/clocks.c.obj
 .text.clock_set_reported_hz
                0x0000000000000000        0xc CMakeFiles/telitHost.dir/mnt/LinuxApps/PicoSDK/pico-sdk/src/rp2_common/hardware_clocks/clocks.c.obj
 .text.frequency_count_khz
                0x0000000000000000       0x40 CMakeFiles/telitHost.dir/mnt/LinuxApps/PicoSDK/pico-sdk/src/rp2_common/hardware_clocks/clocks.c.obj
 .text.clocks_enable_resus
                0x0000000000000000       0x34 CMakeFiles/telitHost.dir/mnt/LinuxApps/PicoSDK/pico-sdk/src/rp2_common/hardware_clocks/clocks.c.obj
 .text.clock_gpio_init
                0x0000000000000000       0x4c CMakeFiles/telitHost.dir/mnt/LinuxApps/PicoSDK/pico-sdk/src/rp2_common/hardware_clocks/clocks.c.obj
 .text.clock_configure_gpin
                0x0000000000000000       0x5c CMakeFiles/telitHost.dir/mnt/LinuxApps/PicoSDK/pico-sdk/src/rp2_common/hardware_clocks/clocks.c.obj
 .bss._resus_callback
                0x0000000000000000        0x4 CMakeFiles/telitHost.dir/mnt/LinuxApps/PicoSDK/pico-sdk/src/rp2_common/hardware_clocks/clocks.c.obj
 .rodata.__func__.0
                0x0000000000000000       0x14 CMakeFiles/telitHost.dir/mnt/LinuxApps/PicoSDK/pico-sdk/src/rp2_common/hardware_clocks/clocks.c.obj
 .rodata.gpin0_src
                0x0000000000000000        0xa CMakeFiles/telitHost.dir/mnt/LinuxApps/PicoSDK/pico-sdk/src/rp2_common/hardware_clocks/clocks.c.obj
 .text          0x0000000000000000        0x0 CMakeFiles/telitHost.dir/mnt/LinuxApps/PicoSDK/pico-sdk/src/rp2_common/hardware_irq/irq.c.obj
 .data          0x0000000000000000        0x0 CMakeFiles/telitHost.dir/mnt/LinuxApps/PicoSDK/pico-sdk/src/rp2_common/hardware_irq/irq.c.obj
 .bss           0x0000000000000000        0x0 CMakeFiles/telitHost.dir/mnt/LinuxApps/PicoSDK/pico-sdk/src/rp2_common/hardware_irq/irq.c.obj
 .text.irq_get_exclusive_handler
                0x0000000000000000       0x4c CMakeFiles/telitHost.dir/mnt/LinuxApps/PicoSDK/pico-sdk/src/rp2_common/hardware_irq/irq.c.obj
 .text.irq_add_shared_handler
                0x0000000000000000      0x230 CMakeFiles/telitHost.dir/mnt/LinuxApps/PicoSDK/pico-sdk/src/rp2_common/hardware_irq/irq.c.obj
 .text.irq_set_priority
                0x0000000000000000       0x28 CMakeFiles/telitHost.dir/mnt/LinuxApps/PicoSDK/pico-sdk/src/rp2_common/hardware_irq/irq.c.obj
 .text.irq_get_priority
                0x0000000000000000       0x20 CMakeFiles/telitHost.dir/mnt/LinuxApps/PicoSDK/pico-sdk/src/rp2_common/hardware_irq/irq.c.obj
 .rodata.__func__.5
                0x0000000000000000       0x17 CMakeFiles/telitHost.dir/mnt/LinuxApps/PicoSDK/pico-sdk/src/rp2_common/hardware_irq/irq.c.obj
 .text          0x0000000000000000        0x0 CMakeFiles/telitHost.dir/mnt/LinuxApps/PicoSDK/pico-sdk/src/rp2_common/hardware_irq/irq_handler_chain.S.obj
 .bss           0x0000000000000000        0x0 CMakeFiles/telitHost.dir/mnt/LinuxApps/PicoSDK/pico-sdk/src/rp2_common/hardware_irq/irq_handler_chain.S.obj
 .text          0x0000000000000000        0x0 CMakeFiles/telitHost.dir/mnt/LinuxApps/PicoSDK/pico-sdk/src/rp2_common/hardware_pll/pll.c.obj
 .data          0x0000000000000000        0x0 CMakeFiles/telitHost.dir/mnt/LinuxApps/PicoSDK/pico-sdk/src/rp2_common/hardware_pll/pll.c.obj
 .bss           0x0000000000000000        0x0 CMakeFiles/telitHost.dir/mnt/LinuxApps/PicoSDK/pico-sdk/src/rp2_common/hardware_pll/pll.c.obj
 .text.pll_deinit
                0x0000000000000000        0x6 CMakeFiles/telitHost.dir/mnt/LinuxApps/PicoSDK/pico-sdk/src/rp2_common/hardware_pll/pll.c.obj
 .text          0x0000000000000000        0x0 CMakeFiles/telitHost.dir/mnt/LinuxApps/PicoSDK/pico-sdk/src/rp2_common/hardware_vreg/vreg.c.obj
 .data          0x0000000000000000        0x0 CMakeFiles/telitHost.dir/mnt/LinuxApps/PicoSDK/pico-sdk/src/rp2_common/hardware_vreg/vreg.c.obj
 .bss           0x0000000000000000        0x0 CMakeFiles/telitHost.dir/mnt/LinuxApps/PicoSDK/pico-sdk/src/rp2_common/hardware_vreg/vreg.c.obj
 .text.vreg_set_voltage
                0x0000000000000000       0x1c CMakeFiles/telitHost.dir/mnt/LinuxApps/PicoSDK/pico-sdk/src/rp2_common/hardware_vreg/vreg.c.obj
 .debug_info    0x0000000000000000      0x238 CMakeFiles/telitHost.dir/mnt/LinuxApps/PicoSDK/pico-sdk/src/rp2_common/hardware_vreg/vreg.c.obj
 .debug_abbrev  0x0000000000000000      0x11d CMakeFiles/telitHost.dir/mnt/LinuxApps/PicoSDK/pico-sdk/src/rp2_common/hardware_vreg/vreg.c.obj
 .debug_loc     0x0000000000000000       0x9a CMakeFiles/telitHost.dir/mnt/LinuxApps/PicoSDK/pico-sdk/src/rp2_common/hardware_vreg/vreg.c.obj
 .debug_aranges
                0x0000000000000000       0x20 CMakeFiles/telitHost.dir/mnt/LinuxApps/PicoSDK/pico-sdk/src/rp2_common/hardware_vreg/vreg.c.obj
 .debug_ranges  0x0000000000000000       0x10 CMakeFiles/telitHost.dir/mnt/LinuxApps/PicoSDK/pico-sdk/src/rp2_common/hardware_vreg/vreg.c.obj
 .debug_line    0x0000000000000000      0x253 CMakeFiles/telitHost.dir/mnt/LinuxApps/PicoSDK/pico-sdk/src/rp2_common/hardware_vreg/vreg.c.obj
 .debug_str     0x0000000000000000      0x32a CMakeFiles/telitHost.dir/mnt/LinuxApps/PicoSDK/pico-sdk/src/rp2_common/hardware_vreg/vreg.c.obj
 .comment       0x0000000000000000       0x34 CMakeFiles/telitHost.dir/mnt/LinuxApps/PicoSDK/pico-sdk/src/rp2_common/hardware_vreg/vreg.c.obj
 .debug_frame   0x0000000000000000       0x20 CMakeFiles/telitHost.dir/mnt/LinuxApps/PicoSDK/pico-sdk/src/rp2_common/hardware_vreg/vreg.c.obj
 .ARM.attributes
                0x0000000000000000       0x2c CMakeFiles/telitHost.dir/mnt/LinuxApps/PicoSDK/pico-sdk/src/rp2_common/hardware_vreg/vreg.c.obj
 .text          0x0000000000000000        0x0 CMakeFiles/telitHost.dir/mnt/LinuxApps/PicoSDK/pico-sdk/src/rp2_common/hardware_watchdog/watchdog.c.obj
 .data          0x0000000000000000        0x0 CMakeFiles/telitHost.dir/mnt/LinuxApps/PicoSDK/pico-sdk/src/rp2_common/hardware_watchdog/watchdog.c.obj
 .bss           0x0000000000000000        0x0 CMakeFiles/telitHost.dir/mnt/LinuxApps/PicoSDK/pico-sdk/src/rp2_common/hardware_watchdog/watchdog.c.obj
 .text.watchdog_get_count
                0x0000000000000000       0x10 CMakeFiles/telitHost.dir/mnt/LinuxApps/PicoSDK/pico-sdk/src/rp2_common/hardware_watchdog/watchdog.c.obj
 .text.watchdog_enable
                0x0000000000000000       0x18 CMakeFiles/telitHost.dir/mnt/LinuxApps/PicoSDK/pico-sdk/src/rp2_common/hardware_watchdog/watchdog.c.obj
 .text.watchdog_caused_reboot
                0x0000000000000000       0x10 CMakeFiles/telitHost.dir/mnt/LinuxApps/PicoSDK/pico-sdk/src/rp2_common/hardware_watchdog/watchdog.c.obj
 .text.watchdog_enable_caused_reboot
                0x0000000000000000       0x28 CMakeFiles/telitHost.dir/mnt/LinuxApps/PicoSDK/pico-sdk/src/rp2_common/hardware_watchdog/watchdog.c.obj
 .text          0x0000000000000000        0x0 CMakeFiles/telitHost.dir/mnt/LinuxApps/PicoSDK/pico-sdk/src/rp2_common/hardware_xosc/xosc.c.obj
 .data          0x0000000000000000        0x0 CMakeFiles/telitHost.dir/mnt/LinuxApps/PicoSDK/pico-sdk/src/rp2_common/hardware_xosc/xosc.c.obj
 .bss           0x0000000000000000        0x0 CMakeFiles/telitHost.dir/mnt/LinuxApps/PicoSDK/pico-sdk/src/rp2_common/hardware_xosc/xosc.c.obj
 .text.xosc_disable
                0x0000000000000000       0x24 CMakeFiles/telitHost.dir/mnt/LinuxApps/PicoSDK/pico-sdk/src/rp2_common/hardware_xosc/xosc.c.obj
 .text.xosc_dormant
                0x0000000000000000       0x18 CMakeFiles/telitHost.dir/mnt/LinuxApps/PicoSDK/pico-sdk/src/rp2_common/hardware_xosc/xosc.c.obj
 .text          0x0000000000000000        0x0 CMakeFiles/telitHost.dir/mnt/LinuxApps/PicoSDK/pico-sdk/src/rp2_common/pico_printf/printf.c.obj
 .data          0x0000000000000000        0x0 CMakeFiles/telitHost.dir/mnt/LinuxApps/PicoSDK/pico-sdk/src/rp2_common/pico_printf/printf.c.obj
 .bss           0x0000000000000000        0x0 CMakeFiles/telitHost.dir/mnt/LinuxApps/PicoSDK/pico-sdk/src/rp2_common/pico_printf/printf.c.obj
 .text._out_buffer
                0x0000000000000000        0x8 CMakeFiles/telitHost.dir/mnt/LinuxApps/PicoSDK/pico-sdk/src/rp2_common/pico_printf/printf.c.obj
 .text.__wrap_sprintf
                0x0000000000000000       0x28 CMakeFiles/telitHost.dir/mnt/LinuxApps/PicoSDK/pico-sdk/src/rp2_common/pico_printf/printf.c.obj
 .text.__wrap_snprintf
                0x0000000000000000       0x28 CMakeFiles/telitHost.dir/mnt/LinuxApps/PicoSDK/pico-sdk/src/rp2_common/pico_printf/printf.c.obj
 .text.__wrap_vsnprintf
                0x0000000000000000       0x1c CMakeFiles/telitHost.dir/mnt/LinuxApps/PicoSDK/pico-sdk/src/rp2_common/pico_printf/printf.c.obj
 .data          0x0000000000000000        0x0 CMakeFiles/telitHost.dir/mnt/LinuxApps/PicoSDK/pico-sdk/src/rp2_common/pico_bit_ops/bit_ops_aeabi.S.obj
 .bss           0x0000000000000000        0x0 CMakeFiles/telitHost.dir/mnt/LinuxApps/PicoSDK/pico-sdk/src/rp2_common/pico_bit_ops/bit_ops_aeabi.S.obj
 .text.clzsi    0x0000000000000000        0xc CMakeFiles/telitHost.dir/mnt/LinuxApps/PicoSDK/pico-sdk/src/rp2_common/pico_bit_ops/bit_ops_aeabi.S.obj
 .text.ctzsi    0x0000000000000000        0xc CMakeFiles/telitHost.dir/mnt/LinuxApps/PicoSDK/pico-sdk/src/rp2_common/pico_bit_ops/bit_ops_aeabi.S.obj
 .text.popcountsi
                0x0000000000000000        0xc CMakeFiles/telitHost.dir/mnt/LinuxApps/PicoSDK/pico-sdk/src/rp2_common/pico_bit_ops/bit_ops_aeabi.S.obj
 .text.clzdi    0x0000000000000000       0x18 CMakeFiles/telitHost.dir/mnt/LinuxApps/PicoSDK/pico-sdk/src/rp2_common/pico_bit_ops/bit_ops_aeabi.S.obj
 .text.ctzdi    0x0000000000000000       0x18 CMakeFiles/telitHost.dir/mnt/LinuxApps/PicoSDK/pico-sdk/src/rp2_common/pico_bit_ops/bit_ops_aeabi.S.obj
 .text.popcountdi
                0x0000000000000000       0x18 CMakeFiles/telitHost.dir/mnt/LinuxApps/PicoSDK/pico-sdk/src/rp2_common/pico_bit_ops/bit_ops_aeabi.S.obj
 .text.reverse32
                0x0000000000000000        0xc CMakeFiles/telitHost.dir/mnt/LinuxApps/PicoSDK/pico-sdk/src/rp2_common/pico_bit_ops/bit_ops_aeabi.S.obj
 .text.__rev    0x0000000000000000        0xc CMakeFiles/telitHost.dir/mnt/LinuxApps/PicoSDK/pico-sdk/src/rp2_common/pico_bit_ops/bit_ops_aeabi.S.obj
 .text.__revll  0x0000000000000000       0x18 CMakeFiles/telitHost.dir/mnt/LinuxApps/PicoSDK/pico-sdk/src/rp2_common/pico_bit_ops/bit_ops_aeabi.S.obj
 .text          0x0000000000000000        0x0 CMakeFiles/telitHost.dir/mnt/LinuxApps/PicoSDK/pico-sdk/src/rp2_common/pico_bootrom/bootrom.c.obj
 .data          0x0000000000000000        0x0 CMakeFiles/telitHost.dir/mnt/LinuxApps/PicoSDK/pico-sdk/src/rp2_common/pico_bootrom/bootrom.c.obj
 .bss           0x0000000000000000        0x0 CMakeFiles/telitHost.dir/mnt/LinuxApps/PicoSDK/pico-sdk/src/rp2_common/pico_bootrom/bootrom.c.obj
 .text          0x0000000000000000        0x0 CMakeFiles/telitHost.dir/mnt/LinuxApps/PicoSDK/pico-sdk/src/rp2_common/pico_divider/divider.S.obj
 .data          0x0000000000000000        0x0 CMakeFiles/telitHost.dir/mnt/LinuxApps/PicoSDK/pico-sdk/src/rp2_common/pico_divider/divider.S.obj
 .bss           0x0000000000000000        0x0 CMakeFiles/telitHost.dir/mnt/LinuxApps/PicoSDK/pico-sdk/src/rp2_common/pico_divider/divider.S.obj
 .text.divmod_s64s64_rem
                0x0000000000000000        0xc CMakeFiles/telitHost.dir/mnt/LinuxApps/PicoSDK/pico-sdk/src/rp2_common/pico_divider/divider.S.obj
 .text.divmod_u64u64_rem
                0x0000000000000000        0xc CMakeFiles/telitHost.dir/mnt/LinuxApps/PicoSDK/pico-sdk/src/rp2_common/pico_divider/divider.S.obj
 .text          0x0000000000000000        0x0 CMakeFiles/telitHost.dir/mnt/LinuxApps/PicoSDK/pico-sdk/src/rp2_common/pico_double/double_aeabi.S.obj
 .data          0x0000000000000000        0x0 CMakeFiles/telitHost.dir/mnt/LinuxApps/PicoSDK/pico-sdk/src/rp2_common/pico_double/double_aeabi.S.obj
 .bss           0x0000000000000000        0x0 CMakeFiles/telitHost.dir/mnt/LinuxApps/PicoSDK/pico-sdk/src/rp2_common/pico_double/double_aeabi.S.obj
 .text.push_r8_r11
                0x0000000000000000        0xc CMakeFiles/telitHost.dir/mnt/LinuxApps/PicoSDK/pico-sdk/src/rp2_common/pico_double/double_aeabi.S.obj
 .text.pop_r8_r11
                0x0000000000000000        0xc CMakeFiles/telitHost.dir/mnt/LinuxApps/PicoSDK/pico-sdk/src/rp2_common/pico_double/double_aeabi.S.obj
 .text.__wrap___aeabi_dcmpeq
                0x0000000000000000       0x10 CMakeFiles/telitHost.dir/mnt/LinuxApps/PicoSDK/pico-sdk/src/rp2_common/pico_double/double_aeabi.S.obj
 .text.__wrap___aeabi_ui2d
                0x0000000000000000       0x18 CMakeFiles/telitHost.dir/mnt/LinuxApps/PicoSDK/pico-sdk/src/rp2_common/pico_double/double_aeabi.S.obj
 .text.double2int
                0x0000000000000000       0x18 CMakeFiles/telitHost.dir/mnt/LinuxApps/PicoSDK/pico-sdk/src/rp2_common/pico_double/double_aeabi.S.obj
 .text.fix2double
                0x0000000000000000       0x18 CMakeFiles/telitHost.dir/mnt/LinuxApps/PicoSDK/pico-sdk/src/rp2_common/pico_double/double_aeabi.S.obj
 .text.ufix2double
                0x0000000000000000       0x28 CMakeFiles/telitHost.dir/mnt/LinuxApps/PicoSDK/pico-sdk/src/rp2_common/pico_double/double_aeabi.S.obj
 .text.fix642double
                0x0000000000000000       0x18 CMakeFiles/telitHost.dir/mnt/LinuxApps/PicoSDK/pico-sdk/src/rp2_common/pico_double/double_aeabi.S.obj
 .text.__wrap___aeabi_l2d
                0x0000000000000000       0x18 CMakeFiles/telitHost.dir/mnt/LinuxApps/PicoSDK/pico-sdk/src/rp2_common/pico_double/double_aeabi.S.obj
 .text.__wrap___aeabi_ul2d
                0x0000000000000000       0x18 CMakeFiles/telitHost.dir/mnt/LinuxApps/PicoSDK/pico-sdk/src/rp2_common/pico_double/double_aeabi.S.obj
 .text.__wrap___aeabi_d2lz
                0x0000000000000000       0x26 CMakeFiles/telitHost.dir/mnt/LinuxApps/PicoSDK/pico-sdk/src/rp2_common/pico_double/double_aeabi.S.obj
 .text.double2int64
                0x0000000000000000       0x18 CMakeFiles/telitHost.dir/mnt/LinuxApps/PicoSDK/pico-sdk/src/rp2_common/pico_double/double_aeabi.S.obj
 .text.__wrap___aeabi_d2ulz
                0x0000000000000000       0x18 CMakeFiles/telitHost.dir/mnt/LinuxApps/PicoSDK/pico-sdk/src/rp2_common/pico_double/double_aeabi.S.obj
 .text.double2fix64
                0x0000000000000000       0x18 CMakeFiles/telitHost.dir/mnt/LinuxApps/PicoSDK/pico-sdk/src/rp2_common/pico_double/double_aeabi.S.obj
 .text.double2ufix64
                0x0000000000000000       0x18 CMakeFiles/telitHost.dir/mnt/LinuxApps/PicoSDK/pico-sdk/src/rp2_common/pico_double/double_aeabi.S.obj
 .text.double2fix
                0x0000000000000000       0x18 CMakeFiles/telitHost.dir/mnt/LinuxApps/PicoSDK/pico-sdk/src/rp2_common/pico_double/double_aeabi.S.obj
 .text.double2ufix
                0x0000000000000000       0x18 CMakeFiles/telitHost.dir/mnt/LinuxApps/PicoSDK/pico-sdk/src/rp2_common/pico_double/double_aeabi.S.obj
 .text.__wrap___aeabi_d2f
                0x0000000000000000       0x18 CMakeFiles/telitHost.dir/mnt/LinuxApps/PicoSDK/pico-sdk/src/rp2_common/pico_double/double_aeabi.S.obj
 .text.__wrap_srqt
                0x0000000000000000       0x18 CMakeFiles/telitHost.dir/mnt/LinuxApps/PicoSDK/pico-sdk/src/rp2_common/pico_double/double_aeabi.S.obj
 .text.__wrap_sincostan_remainder
                0x0000000000000000       0x14 CMakeFiles/telitHost.dir/mnt/LinuxApps/PicoSDK/pico-sdk/src/rp2_common/pico_double/double_aeabi.S.obj
 .text.__wrap_cos
                0x0000000000000000       0x2c CMakeFiles/telitHost.dir/mnt/LinuxApps/PicoSDK/pico-sdk/src/rp2_common/pico_double/double_aeabi.S.obj
 .text.__wrap_sin
                0x0000000000000000       0x2c CMakeFiles/telitHost.dir/mnt/LinuxApps/PicoSDK/pico-sdk/src/rp2_common/pico_double/double_aeabi.S.obj
 .text.__wrap_sincos
                0x0000000000000000       0xa0 CMakeFiles/telitHost.dir/mnt/LinuxApps/PicoSDK/pico-sdk/src/rp2_common/pico_double/double_aeabi.S.obj
 .text.__wrap_tan
                0x0000000000000000       0x5c CMakeFiles/telitHost.dir/mnt/LinuxApps/PicoSDK/pico-sdk/src/rp2_common/pico_double/double_aeabi.S.obj
 .text.__wrap_atan2
                0x0000000000000000       0x18 CMakeFiles/telitHost.dir/mnt/LinuxApps/PicoSDK/pico-sdk/src/rp2_common/pico_double/double_aeabi.S.obj
 .text.__wrap_exp
                0x0000000000000000       0x18 CMakeFiles/telitHost.dir/mnt/LinuxApps/PicoSDK/pico-sdk/src/rp2_common/pico_double/double_aeabi.S.obj
 .text.__wrap_log
                0x0000000000000000       0x18 CMakeFiles/telitHost.dir/mnt/LinuxApps/PicoSDK/pico-sdk/src/rp2_common/pico_double/double_aeabi.S.obj
 .text          0x0000000000000000        0x0 CMakeFiles/telitHost.dir/mnt/LinuxApps/PicoSDK/pico-sdk/src/rp2_common/pico_double/double_init_rom.c.obj
 .data          0x0000000000000000        0x0 CMakeFiles/telitHost.dir/mnt/LinuxApps/PicoSDK/pico-sdk/src/rp2_common/pico_double/double_init_rom.c.obj
 .bss           0x0000000000000000        0x0 CMakeFiles/telitHost.dir/mnt/LinuxApps/PicoSDK/pico-sdk/src/rp2_common/pico_double/double_init_rom.c.obj
 .text          0x0000000000000000        0x0 CMakeFiles/telitHost.dir/mnt/LinuxApps/PicoSDK/pico-sdk/src/rp2_common/pico_double/double_math.c.obj
 .data          0x0000000000000000        0x0 CMakeFiles/telitHost.dir/mnt/LinuxApps/PicoSDK/pico-sdk/src/rp2_common/pico_double/double_math.c.obj
 .bss           0x0000000000000000        0x0 CMakeFiles/telitHost.dir/mnt/LinuxApps/PicoSDK/pico-sdk/src/rp2_common/pico_double/double_math.c.obj
 .text.dpow_int2
                0x0000000000000000       0x2c CMakeFiles/telitHost.dir/mnt/LinuxApps/PicoSDK/pico-sdk/src/rp2_common/pico_double/double_math.c.obj
 .text.drem_0   0x0000000000000000      0x130 CMakeFiles/telitHost.dir/mnt/LinuxApps/PicoSDK/pico-sdk/src/rp2_common/pico_double/double_math.c.obj
 .text.dpow_1   0x0000000000000000      0x2a8 CMakeFiles/telitHost.dir/mnt/LinuxApps/PicoSDK/pico-sdk/src/rp2_common/pico_double/double_math.c.obj
 .text.dpowint_0
                0x0000000000000000      0x194 CMakeFiles/telitHost.dir/mnt/LinuxApps/PicoSDK/pico-sdk/src/rp2_common/pico_double/double_math.c.obj
 .text.dpow_0   0x0000000000000000      0x1a0 CMakeFiles/telitHost.dir/mnt/LinuxApps/PicoSDK/pico-sdk/src/rp2_common/pico_double/double_math.c.obj
 .text.__wrap_ldexp
                0x0000000000000000       0x50 CMakeFiles/telitHost.dir/mnt/LinuxApps/PicoSDK/pico-sdk/src/rp2_common/pico_double/double_math.c.obj
 .text.__wrap_copysign
                0x0000000000000000       0x10 CMakeFiles/telitHost.dir/mnt/LinuxApps/PicoSDK/pico-sdk/src/rp2_common/pico_double/double_math.c.obj
 .text.__wrap_trunc
                0x0000000000000000       0x60 CMakeFiles/telitHost.dir/mnt/LinuxApps/PicoSDK/pico-sdk/src/rp2_common/pico_double/double_math.c.obj
 .text.__wrap_round
                0x0000000000000000       0x9c CMakeFiles/telitHost.dir/mnt/LinuxApps/PicoSDK/pico-sdk/src/rp2_common/pico_double/double_math.c.obj
 .text.__wrap_floor
                0x0000000000000000       0x9c CMakeFiles/telitHost.dir/mnt/LinuxApps/PicoSDK/pico-sdk/src/rp2_common/pico_double/double_math.c.obj
 .text.__wrap_ceil
                0x0000000000000000       0x9c CMakeFiles/telitHost.dir/mnt/LinuxApps/PicoSDK/pico-sdk/src/rp2_common/pico_double/double_math.c.obj
 .text.__wrap_asin
                0x0000000000000000       0x60 CMakeFiles/telitHost.dir/mnt/LinuxApps/PicoSDK/pico-sdk/src/rp2_common/pico_double/double_math.c.obj
 .text.__wrap_acos
                0x0000000000000000       0x5c CMakeFiles/telitHost.dir/mnt/LinuxApps/PicoSDK/pico-sdk/src/rp2_common/pico_double/double_math.c.obj
 .text.__wrap_atan
                0x0000000000000000       0x40 CMakeFiles/telitHost.dir/mnt/LinuxApps/PicoSDK/pico-sdk/src/rp2_common/pico_double/double_math.c.obj
 .text.__wrap_sinh
                0x0000000000000000       0x7c CMakeFiles/telitHost.dir/mnt/LinuxApps/PicoSDK/pico-sdk/src/rp2_common/pico_double/double_math.c.obj
 .text.__wrap_cosh
                0x0000000000000000       0x7c CMakeFiles/telitHost.dir/mnt/LinuxApps/PicoSDK/pico-sdk/src/rp2_common/pico_double/double_math.c.obj
 .text.__wrap_tanh
                0x0000000000000000       0x98 CMakeFiles/telitHost.dir/mnt/LinuxApps/PicoSDK/pico-sdk/src/rp2_common/pico_double/double_math.c.obj
 .text.__wrap_asinh
                0x0000000000000000       0xb8 CMakeFiles/telitHost.dir/mnt/LinuxApps/PicoSDK/pico-sdk/src/rp2_common/pico_double/double_math.c.obj
 .text.__wrap_acosh
                0x0000000000000000       0x78 CMakeFiles/telitHost.dir/mnt/LinuxApps/PicoSDK/pico-sdk/src/rp2_common/pico_double/double_math.c.obj
 .text.__wrap_atanh
                0x0000000000000000       0x84 CMakeFiles/telitHost.dir/mnt/LinuxApps/PicoSDK/pico-sdk/src/rp2_common/pico_double/double_math.c.obj
 .text.__wrap_exp2
                0x0000000000000000       0xcc CMakeFiles/telitHost.dir/mnt/LinuxApps/PicoSDK/pico-sdk/src/rp2_common/pico_double/double_math.c.obj
 .text.__wrap_log2
                0x0000000000000000       0x18 CMakeFiles/telitHost.dir/mnt/LinuxApps/PicoSDK/pico-sdk/src/rp2_common/pico_double/double_math.c.obj
 .text.__wrap_exp10
                0x0000000000000000       0x14 CMakeFiles/telitHost.dir/mnt/LinuxApps/PicoSDK/pico-sdk/src/rp2_common/pico_double/double_math.c.obj
 .text.__wrap_log10
                0x0000000000000000       0x18 CMakeFiles/telitHost.dir/mnt/LinuxApps/PicoSDK/pico-sdk/src/rp2_common/pico_double/double_math.c.obj
 .text.__wrap_expm1
                0x0000000000000000       0x14 CMakeFiles/telitHost.dir/mnt/LinuxApps/PicoSDK/pico-sdk/src/rp2_common/pico_double/double_math.c.obj
 .text.__wrap_log1p
                0x0000000000000000       0x14 CMakeFiles/telitHost.dir/mnt/LinuxApps/PicoSDK/pico-sdk/src/rp2_common/pico_double/double_math.c.obj
 .text.__wrap_fma
                0x0000000000000000       0x10 CMakeFiles/telitHost.dir/mnt/LinuxApps/PicoSDK/pico-sdk/src/rp2_common/pico_double/double_math.c.obj
 .text.__wrap_powint
                0x0000000000000000       0xbc CMakeFiles/telitHost.dir/mnt/LinuxApps/PicoSDK/pico-sdk/src/rp2_common/pico_double/double_math.c.obj
 .text.__wrap_pow
                0x0000000000000000      0x37c CMakeFiles/telitHost.dir/mnt/LinuxApps/PicoSDK/pico-sdk/src/rp2_common/pico_double/double_math.c.obj
 .text.__wrap_hypot
                0x0000000000000000      0x238 CMakeFiles/telitHost.dir/mnt/LinuxApps/PicoSDK/pico-sdk/src/rp2_common/pico_double/double_math.c.obj
 .text.__wrap_cbrt
                0x0000000000000000       0xf0 CMakeFiles/telitHost.dir/mnt/LinuxApps/PicoSDK/pico-sdk/src/rp2_common/pico_double/double_math.c.obj
 .text.__wrap_fmod
                0x0000000000000000       0xa8 CMakeFiles/telitHost.dir/mnt/LinuxApps/PicoSDK/pico-sdk/src/rp2_common/pico_double/double_math.c.obj
 .text.__wrap_remquo
                0x0000000000000000      0x17c CMakeFiles/telitHost.dir/mnt/LinuxApps/PicoSDK/pico-sdk/src/rp2_common/pico_double/double_math.c.obj
 .text.__wrap_drem
                0x0000000000000000       0x10 CMakeFiles/telitHost.dir/mnt/LinuxApps/PicoSDK/pico-sdk/src/rp2_common/pico_double/double_math.c.obj
 .text.__wrap_remainder
                0x0000000000000000       0x10 CMakeFiles/telitHost.dir/mnt/LinuxApps/PicoSDK/pico-sdk/src/rp2_common/pico_double/double_math.c.obj
 .debug_info    0x0000000000000000     0x5563 CMakeFiles/telitHost.dir/mnt/LinuxApps/PicoSDK/pico-sdk/src/rp2_common/pico_double/double_math.c.obj
 .debug_abbrev  0x0000000000000000      0x2e3 CMakeFiles/telitHost.dir/mnt/LinuxApps/PicoSDK/pico-sdk/src/rp2_common/pico_double/double_math.c.obj
 .debug_loc     0x0000000000000000     0x7f1a CMakeFiles/telitHost.dir/mnt/LinuxApps/PicoSDK/pico-sdk/src/rp2_common/pico_double/double_math.c.obj
 .debug_aranges
                0x0000000000000000      0x130 CMakeFiles/telitHost.dir/mnt/LinuxApps/PicoSDK/pico-sdk/src/rp2_common/pico_double/double_math.c.obj
 .debug_ranges  0x0000000000000000      0x5e8 CMakeFiles/telitHost.dir/mnt/LinuxApps/PicoSDK/pico-sdk/src/rp2_common/pico_double/double_math.c.obj
 .debug_line    0x0000000000000000     0x2be1 CMakeFiles/telitHost.dir/mnt/LinuxApps/PicoSDK/pico-sdk/src/rp2_common/pico_double/double_math.c.obj
 .debug_str     0x0000000000000000      0x503 CMakeFiles/telitHost.dir/mnt/LinuxApps/PicoSDK/pico-sdk/src/rp2_common/pico_double/double_math.c.obj
 .comment       0x0000000000000000       0x34 CMakeFiles/telitHost.dir/mnt/LinuxApps/PicoSDK/pico-sdk/src/rp2_common/pico_double/double_math.c.obj
 .debug_frame   0x0000000000000000      0x440 CMakeFiles/telitHost.dir/mnt/LinuxApps/PicoSDK/pico-sdk/src/rp2_common/pico_double/double_math.c.obj
 .ARM.attributes
                0x0000000000000000       0x2c CMakeFiles/telitHost.dir/mnt/LinuxApps/PicoSDK/pico-sdk/src/rp2_common/pico_double/double_math.c.obj
 .text          0x0000000000000000        0x0 CMakeFiles/telitHost.dir/mnt/LinuxApps/PicoSDK/pico-sdk/src/rp2_common/pico_double/double_v1_rom_shim.S.obj
 .data          0x0000000000000000        0x0 CMakeFiles/telitHost.dir/mnt/LinuxApps/PicoSDK/pico-sdk/src/rp2_common/pico_double/double_v1_rom_shim.S.obj
 .bss           0x0000000000000000        0x0 CMakeFiles/telitHost.dir/mnt/LinuxApps/PicoSDK/pico-sdk/src/rp2_common/pico_double/double_v1_rom_shim.S.obj
 .text.dsqrt_shim
                0x0000000000000000      0x1a8 CMakeFiles/telitHost.dir/mnt/LinuxApps/PicoSDK/pico-sdk/src/rp2_common/pico_double/double_v1_rom_shim.S.obj
 .text.dcordic_vec_step
                0x0000000000000000        0xe CMakeFiles/telitHost.dir/mnt/LinuxApps/PicoSDK/pico-sdk/src/rp2_common/pico_double/double_v1_rom_shim.S.obj
 .text.dcordic_rot_step
                0x0000000000000000       0x76 CMakeFiles/telitHost.dir/mnt/LinuxApps/PicoSDK/pico-sdk/src/rp2_common/pico_double/double_v1_rom_shim.S.obj
 .text.double2int_shim
                0x0000000000000000        0xe CMakeFiles/telitHost.dir/mnt/LinuxApps/PicoSDK/pico-sdk/src/rp2_common/pico_double/double_v1_rom_shim.S.obj
 .text.double2int64_shim
                0x0000000000000000       0x1a CMakeFiles/telitHost.dir/mnt/LinuxApps/PicoSDK/pico-sdk/src/rp2_common/pico_double/double_v1_rom_shim.S.obj
 .text.double2float_shim
                0x0000000000000000       0x5c CMakeFiles/telitHost.dir/mnt/LinuxApps/PicoSDK/pico-sdk/src/rp2_common/pico_double/double_v1_rom_shim.S.obj
 .text.x2double_shims
                0x0000000000000000       0x90 CMakeFiles/telitHost.dir/mnt/LinuxApps/PicoSDK/pico-sdk/src/rp2_common/pico_double/double_v1_rom_shim.S.obj
 .text.dreduce  0x0000000000000000       0x82 CMakeFiles/telitHost.dir/mnt/LinuxApps/PicoSDK/pico-sdk/src/rp2_common/pico_double/double_v1_rom_shim.S.obj
 .text.dtan_shim
                0x0000000000000000       0x20 CMakeFiles/telitHost.dir/mnt/LinuxApps/PicoSDK/pico-sdk/src/rp2_common/pico_double/double_v1_rom_shim.S.obj
 .text.dcos_shim
                0x0000000000000000       0x10 CMakeFiles/telitHost.dir/mnt/LinuxApps/PicoSDK/pico-sdk/src/rp2_common/pico_double/double_v1_rom_shim.S.obj
 .text.dsin_shim
                0x0000000000000000       0x14 CMakeFiles/telitHost.dir/mnt/LinuxApps/PicoSDK/pico-sdk/src/rp2_common/pico_double/double_v1_rom_shim.S.obj
 .text.dsincos_shim
                0x0000000000000000       0x20 CMakeFiles/telitHost.dir/mnt/LinuxApps/PicoSDK/pico-sdk/src/rp2_common/pico_double/double_v1_rom_shim.S.obj
 .text.dtrig_guts
                0x0000000000000000      0x2ec CMakeFiles/telitHost.dir/mnt/LinuxApps/PicoSDK/pico-sdk/src/rp2_common/pico_double/double_v1_rom_shim.S.obj
 .text.dexp_guts
                0x0000000000000000      0x268 CMakeFiles/telitHost.dir/mnt/LinuxApps/PicoSDK/pico-sdk/src/rp2_common/pico_double/double_v1_rom_shim.S.obj
 .text          0x0000000000000000        0x0 CMakeFiles/telitHost.dir/mnt/LinuxApps/PicoSDK/pico-sdk/src/rp2_common/pico_int64_ops/pico_int64_ops_aeabi.S.obj
 .data          0x0000000000000000        0x0 CMakeFiles/telitHost.dir/mnt/LinuxApps/PicoSDK/pico-sdk/src/rp2_common/pico_int64_ops/pico_int64_ops_aeabi.S.obj
 .bss           0x0000000000000000        0x0 CMakeFiles/telitHost.dir/mnt/LinuxApps/PicoSDK/pico-sdk/src/rp2_common/pico_int64_ops/pico_int64_ops_aeabi.S.obj
 .text          0x0000000000000000        0x0 CMakeFiles/telitHost.dir/mnt/LinuxApps/PicoSDK/pico-sdk/src/rp2_common/pico_float/float_aeabi.S.obj
 .data          0x0000000000000000        0x0 CMakeFiles/telitHost.dir/mnt/LinuxApps/PicoSDK/pico-sdk/src/rp2_common/pico_float/float_aeabi.S.obj
 .bss           0x0000000000000000        0x0 CMakeFiles/telitHost.dir/mnt/LinuxApps/PicoSDK/pico-sdk/src/rp2_common/pico_float/float_aeabi.S.obj
 .text.__wrap___aeabi_farithmetic
                0x0000000000000000       0x58 CMakeFiles/telitHost.dir/mnt/LinuxApps/PicoSDK/pico-sdk/src/rp2_common/pico_float/float_aeabi.S.obj
 .text.__wrap___aeabi_cfcmple
                0x0000000000000000       0x50 CMakeFiles/telitHost.dir/mnt/LinuxApps/PicoSDK/pico-sdk/src/rp2_common/pico_float/float_aeabi.S.obj
 .text.__wrap___aeabi_fcmpeq
                0x0000000000000000       0x10 CMakeFiles/telitHost.dir/mnt/LinuxApps/PicoSDK/pico-sdk/src/rp2_common/pico_float/float_aeabi.S.obj
 .text.__wrap___aeabi_fcmplt
                0x0000000000000000        0xc CMakeFiles/telitHost.dir/mnt/LinuxApps/PicoSDK/pico-sdk/src/rp2_common/pico_float/float_aeabi.S.obj
 .text.__wrap___aeabi_fcmple
                0x0000000000000000       0x10 CMakeFiles/telitHost.dir/mnt/LinuxApps/PicoSDK/pico-sdk/src/rp2_common/pico_float/float_aeabi.S.obj
 .text.__wrap___aeabi_fcmpge
                0x0000000000000000       0x10 CMakeFiles/telitHost.dir/mnt/LinuxApps/PicoSDK/pico-sdk/src/rp2_common/pico_float/float_aeabi.S.obj
 .text.__wrap___aeabi_fcmpgt
                0x0000000000000000        0xa CMakeFiles/telitHost.dir/mnt/LinuxApps/PicoSDK/pico-sdk/src/rp2_common/pico_float/float_aeabi.S.obj
 .text.__wrap___aeabi_fcmpun
                0x0000000000000000       0x18 CMakeFiles/telitHost.dir/mnt/LinuxApps/PicoSDK/pico-sdk/src/rp2_common/pico_float/float_aeabi.S.obj
 .text.__wrap___aeabi_ui2f
                0x0000000000000000        0xa CMakeFiles/telitHost.dir/mnt/LinuxApps/PicoSDK/pico-sdk/src/rp2_common/pico_float/float_aeabi.S.obj
 .text.__wrap___aeabi_i2f
                0x0000000000000000       0x44 CMakeFiles/telitHost.dir/mnt/LinuxApps/PicoSDK/pico-sdk/src/rp2_common/pico_float/float_aeabi.S.obj
 .text.__wrap___aeabi_f2iz
                0x0000000000000000       0x4e CMakeFiles/telitHost.dir/mnt/LinuxApps/PicoSDK/pico-sdk/src/rp2_common/pico_float/float_aeabi.S.obj
 .text.float2int
                0x0000000000000000       0x14 CMakeFiles/telitHost.dir/mnt/LinuxApps/PicoSDK/pico-sdk/src/rp2_common/pico_float/float_aeabi.S.obj
 .text.float2fix
                0x0000000000000000       0x14 CMakeFiles/telitHost.dir/mnt/LinuxApps/PicoSDK/pico-sdk/src/rp2_common/pico_float/float_aeabi.S.obj
 .text.float2ufix
                0x0000000000000000       0x10 CMakeFiles/telitHost.dir/mnt/LinuxApps/PicoSDK/pico-sdk/src/rp2_common/pico_float/float_aeabi.S.obj
 .text.__wrap___aeabi_f2uiz
                0x0000000000000000       0x10 CMakeFiles/telitHost.dir/mnt/LinuxApps/PicoSDK/pico-sdk/src/rp2_common/pico_float/float_aeabi.S.obj
 .text.fix2float
                0x0000000000000000       0x10 CMakeFiles/telitHost.dir/mnt/LinuxApps/PicoSDK/pico-sdk/src/rp2_common/pico_float/float_aeabi.S.obj
 .text.ufix2float
                0x0000000000000000       0x10 CMakeFiles/telitHost.dir/mnt/LinuxApps/PicoSDK/pico-sdk/src/rp2_common/pico_float/float_aeabi.S.obj
 .text.fix642float
                0x0000000000000000       0x14 CMakeFiles/telitHost.dir/mnt/LinuxApps/PicoSDK/pico-sdk/src/rp2_common/pico_float/float_aeabi.S.obj
 .text.ufix642float
                0x0000000000000000       0x14 CMakeFiles/telitHost.dir/mnt/LinuxApps/PicoSDK/pico-sdk/src/rp2_common/pico_float/float_aeabi.S.obj
 .text.__wrap___aeabi_l2f
                0x0000000000000000       0x20 CMakeFiles/telitHost.dir/mnt/LinuxApps/PicoSDK/pico-sdk/src/rp2_common/pico_float/float_aeabi.S.obj
 .text.__wrap___aeabi_ul2f
                0x0000000000000000       0x20 CMakeFiles/telitHost.dir/mnt/LinuxApps/PicoSDK/pico-sdk/src/rp2_common/pico_float/float_aeabi.S.obj
 .text.__wrap___aeabi_f2lz
                0x0000000000000000       0x26 CMakeFiles/telitHost.dir/mnt/LinuxApps/PicoSDK/pico-sdk/src/rp2_common/pico_float/float_aeabi.S.obj
 .text.float2int64
                0x0000000000000000       0x14 CMakeFiles/telitHost.dir/mnt/LinuxApps/PicoSDK/pico-sdk/src/rp2_common/pico_float/float_aeabi.S.obj
 .text.float2fix64
                0x0000000000000000       0x14 CMakeFiles/telitHost.dir/mnt/LinuxApps/PicoSDK/pico-sdk/src/rp2_common/pico_float/float_aeabi.S.obj
 .text.__wrap___aeabi_f2ulz
                0x0000000000000000       0x14 CMakeFiles/telitHost.dir/mnt/LinuxApps/PicoSDK/pico-sdk/src/rp2_common/pico_float/float_aeabi.S.obj
 .text.float2ufix64
                0x0000000000000000       0x14 CMakeFiles/telitHost.dir/mnt/LinuxApps/PicoSDK/pico-sdk/src/rp2_common/pico_float/float_aeabi.S.obj
 .text.__wrap___aeabi_f2d
                0x0000000000000000       0x14 CMakeFiles/telitHost.dir/mnt/LinuxApps/PicoSDK/pico-sdk/src/rp2_common/pico_float/float_aeabi.S.obj
 .text.__wrap_srqtf
                0x0000000000000000       0x24 CMakeFiles/telitHost.dir/mnt/LinuxApps/PicoSDK/pico-sdk/src/rp2_common/pico_float/float_aeabi.S.obj
 .text.__wrap_cosf
                0x0000000000000000       0x28 CMakeFiles/telitHost.dir/mnt/LinuxApps/PicoSDK/pico-sdk/src/rp2_common/pico_float/float_aeabi.S.obj
 .text.__wrap_sinf
                0x0000000000000000       0x28 CMakeFiles/telitHost.dir/mnt/LinuxApps/PicoSDK/pico-sdk/src/rp2_common/pico_float/float_aeabi.S.obj
 .text.__wrap_sincosf
                0x0000000000000000       0x30 CMakeFiles/telitHost.dir/mnt/LinuxApps/PicoSDK/pico-sdk/src/rp2_common/pico_float/float_aeabi.S.obj
 .text.__wrap_tanf
                0x0000000000000000       0x50 CMakeFiles/telitHost.dir/mnt/LinuxApps/PicoSDK/pico-sdk/src/rp2_common/pico_float/float_aeabi.S.obj
 .text.__wrap_atan2f
                0x0000000000000000       0x14 CMakeFiles/telitHost.dir/mnt/LinuxApps/PicoSDK/pico-sdk/src/rp2_common/pico_float/float_aeabi.S.obj
 .text.__wrap_expf
                0x0000000000000000       0x10 CMakeFiles/telitHost.dir/mnt/LinuxApps/PicoSDK/pico-sdk/src/rp2_common/pico_float/float_aeabi.S.obj
 .text.__wrap_logf
                0x0000000000000000       0x10 CMakeFiles/telitHost.dir/mnt/LinuxApps/PicoSDK/pico-sdk/src/rp2_common/pico_float/float_aeabi.S.obj
 .text          0x0000000000000000        0x0 CMakeFiles/telitHost.dir/mnt/LinuxApps/PicoSDK/pico-sdk/src/rp2_common/pico_float/float_init_rom.c.obj
 .data          0x0000000000000000        0x0 CMakeFiles/telitHost.dir/mnt/LinuxApps/PicoSDK/pico-sdk/src/rp2_common/pico_float/float_init_rom.c.obj
 .bss           0x0000000000000000        0x0 CMakeFiles/telitHost.dir/mnt/LinuxApps/PicoSDK/pico-sdk/src/rp2_common/pico_float/float_init_rom.c.obj
 .bss.sf_clz_func
                0x0000000000000000        0x4 CMakeFiles/telitHost.dir/mnt/LinuxApps/PicoSDK/pico-sdk/src/rp2_common/pico_float/float_init_rom.c.obj
 .text          0x0000000000000000        0x0 CMakeFiles/telitHost.dir/mnt/LinuxApps/PicoSDK/pico-sdk/src/rp2_common/pico_float/float_math.c.obj
 .data          0x0000000000000000        0x0 CMakeFiles/telitHost.dir/mnt/LinuxApps/PicoSDK/pico-sdk/src/rp2_common/pico_float/float_math.c.obj
 .bss           0x0000000000000000        0x0 CMakeFiles/telitHost.dir/mnt/LinuxApps/PicoSDK/pico-sdk/src/rp2_common/pico_float/float_math.c.obj
 .text.fpow_int2
                0x0000000000000000       0x26 CMakeFiles/telitHost.dir/mnt/LinuxApps/PicoSDK/pico-sdk/src/rp2_common/pico_float/float_math.c.obj
 .text.frem_0   0x0000000000000000       0x80 CMakeFiles/telitHost.dir/mnt/LinuxApps/PicoSDK/pico-sdk/src/rp2_common/pico_float/float_math.c.obj
 .text.fpow_0   0x0000000000000000      0x140 CMakeFiles/telitHost.dir/mnt/LinuxApps/PicoSDK/pico-sdk/src/rp2_common/pico_float/float_math.c.obj
 .text.fpowint_0
                0x0000000000000000      0x12c CMakeFiles/telitHost.dir/mnt/LinuxApps/PicoSDK/pico-sdk/src/rp2_common/pico_float/float_math.c.obj
 .text.__wrap_ldexpf
                0x0000000000000000       0x34 CMakeFiles/telitHost.dir/mnt/LinuxApps/PicoSDK/pico-sdk/src/rp2_common/pico_float/float_math.c.obj
 .text.__wrap_copysignf
                0x0000000000000000        0xc CMakeFiles/telitHost.dir/mnt/LinuxApps/PicoSDK/pico-sdk/src/rp2_common/pico_float/float_math.c.obj
 .text.__wrap_truncf
                0x0000000000000000       0x22 CMakeFiles/telitHost.dir/mnt/LinuxApps/PicoSDK/pico-sdk/src/rp2_common/pico_float/float_math.c.obj
 .text.__wrap_roundf
                0x0000000000000000       0x3e CMakeFiles/telitHost.dir/mnt/LinuxApps/PicoSDK/pico-sdk/src/rp2_common/pico_float/float_math.c.obj
 .text.__wrap_floorf
                0x0000000000000000       0x44 CMakeFiles/telitHost.dir/mnt/LinuxApps/PicoSDK/pico-sdk/src/rp2_common/pico_float/float_math.c.obj
 .text.__wrap_ceilf
                0x0000000000000000       0x44 CMakeFiles/telitHost.dir/mnt/LinuxApps/PicoSDK/pico-sdk/src/rp2_common/pico_float/float_math.c.obj
 .text.__wrap_asinf
                0x0000000000000000       0x42 CMakeFiles/telitHost.dir/mnt/LinuxApps/PicoSDK/pico-sdk/src/rp2_common/pico_float/float_math.c.obj
 .text.__wrap_acosf
                0x0000000000000000       0x40 CMakeFiles/telitHost.dir/mnt/LinuxApps/PicoSDK/pico-sdk/src/rp2_common/pico_float/float_math.c.obj
 .text.__wrap_atanf
                0x0000000000000000       0x2c CMakeFiles/telitHost.dir/mnt/LinuxApps/PicoSDK/pico-sdk/src/rp2_common/pico_float/float_math.c.obj
 .text.__wrap_sinhf
                0x0000000000000000       0x54 CMakeFiles/telitHost.dir/mnt/LinuxApps/PicoSDK/pico-sdk/src/rp2_common/pico_float/float_math.c.obj
 .text.__wrap_coshf
                0x0000000000000000       0x54 CMakeFiles/telitHost.dir/mnt/LinuxApps/PicoSDK/pico-sdk/src/rp2_common/pico_float/float_math.c.obj
 .text.__wrap_tanhf
                0x0000000000000000       0x6c CMakeFiles/telitHost.dir/mnt/LinuxApps/PicoSDK/pico-sdk/src/rp2_common/pico_float/float_math.c.obj
 .text.__wrap_asinhf
                0x0000000000000000       0xb8 CMakeFiles/telitHost.dir/mnt/LinuxApps/PicoSDK/pico-sdk/src/rp2_common/pico_float/float_math.c.obj
 .text.__wrap_acoshf
                0x0000000000000000       0x74 CMakeFiles/telitHost.dir/mnt/LinuxApps/PicoSDK/pico-sdk/src/rp2_common/pico_float/float_math.c.obj
 .text.__wrap_atanhf
                0x0000000000000000       0x5c CMakeFiles/telitHost.dir/mnt/LinuxApps/PicoSDK/pico-sdk/src/rp2_common/pico_float/float_math.c.obj
 .text.__wrap_exp2f
                0x0000000000000000       0x20 CMakeFiles/telitHost.dir/mnt/LinuxApps/PicoSDK/pico-sdk/src/rp2_common/pico_float/float_math.c.obj
 .text.__wrap_log2f
                0x0000000000000000       0x14 CMakeFiles/telitHost.dir/mnt/LinuxApps/PicoSDK/pico-sdk/src/rp2_common/pico_float/float_math.c.obj
 .text.__wrap_exp10f
                0x0000000000000000       0x20 CMakeFiles/telitHost.dir/mnt/LinuxApps/PicoSDK/pico-sdk/src/rp2_common/pico_float/float_math.c.obj
 .text.__wrap_log10f
                0x0000000000000000       0x14 CMakeFiles/telitHost.dir/mnt/LinuxApps/PicoSDK/pico-sdk/src/rp2_common/pico_float/float_math.c.obj
 .text.__wrap_expm1f
                0x0000000000000000       0x1c CMakeFiles/telitHost.dir/mnt/LinuxApps/PicoSDK/pico-sdk/src/rp2_common/pico_float/float_math.c.obj
 .text.__wrap_log1pf
                0x0000000000000000       0x1c CMakeFiles/telitHost.dir/mnt/LinuxApps/PicoSDK/pico-sdk/src/rp2_common/pico_float/float_math.c.obj
 .text.__wrap_fmaf
                0x0000000000000000       0x3c CMakeFiles/telitHost.dir/mnt/LinuxApps/PicoSDK/pico-sdk/src/rp2_common/pico_float/float_math.c.obj
 .text.__wrap_powintf
                0x0000000000000000       0xa0 CMakeFiles/telitHost.dir/mnt/LinuxApps/PicoSDK/pico-sdk/src/rp2_common/pico_float/float_math.c.obj
 .text.__wrap_powf
                0x0000000000000000      0x20c CMakeFiles/telitHost.dir/mnt/LinuxApps/PicoSDK/pico-sdk/src/rp2_common/pico_float/float_math.c.obj
 .text.__wrap_hypotf
                0x0000000000000000      0x18a CMakeFiles/telitHost.dir/mnt/LinuxApps/PicoSDK/pico-sdk/src/rp2_common/pico_float/float_math.c.obj
 .text.__wrap_cbrtf
                0x0000000000000000       0xc4 CMakeFiles/telitHost.dir/mnt/LinuxApps/PicoSDK/pico-sdk/src/rp2_common/pico_float/float_math.c.obj
 .text.__wrap_fmodf
                0x0000000000000000       0x62 CMakeFiles/telitHost.dir/mnt/LinuxApps/PicoSDK/pico-sdk/src/rp2_common/pico_float/float_math.c.obj
 .text.__wrap_remquof
                0x0000000000000000       0xda CMakeFiles/telitHost.dir/mnt/LinuxApps/PicoSDK/pico-sdk/src/rp2_common/pico_float/float_math.c.obj
 .text.__wrap_dremf
                0x0000000000000000        0xa CMakeFiles/telitHost.dir/mnt/LinuxApps/PicoSDK/pico-sdk/src/rp2_common/pico_float/float_math.c.obj
 .text.__wrap_remainderf
                0x0000000000000000        0xa CMakeFiles/telitHost.dir/mnt/LinuxApps/PicoSDK/pico-sdk/src/rp2_common/pico_float/float_math.c.obj
 .debug_info    0x0000000000000000     0x501b CMakeFiles/telitHost.dir/mnt/LinuxApps/PicoSDK/pico-sdk/src/rp2_common/pico_float/float_math.c.obj
 .debug_abbrev  0x0000000000000000      0x2bb CMakeFiles/telitHost.dir/mnt/LinuxApps/PicoSDK/pico-sdk/src/rp2_common/pico_float/float_math.c.obj
 .debug_loc     0x0000000000000000     0x6167 CMakeFiles/telitHost.dir/mnt/LinuxApps/PicoSDK/pico-sdk/src/rp2_common/pico_float/float_math.c.obj
 .debug_aranges
                0x0000000000000000      0x128 CMakeFiles/telitHost.dir/mnt/LinuxApps/PicoSDK/pico-sdk/src/rp2_common/pico_float/float_math.c.obj
 .debug_ranges  0x0000000000000000      0x568 CMakeFiles/telitHost.dir/mnt/LinuxApps/PicoSDK/pico-sdk/src/rp2_common/pico_float/float_math.c.obj
 .debug_line    0x0000000000000000     0x2737 CMakeFiles/telitHost.dir/mnt/LinuxApps/PicoSDK/pico-sdk/src/rp2_common/pico_float/float_math.c.obj
 .debug_str     0x0000000000000000      0x521 CMakeFiles/telitHost.dir/mnt/LinuxApps/PicoSDK/pico-sdk/src/rp2_common/pico_float/float_math.c.obj
 .comment       0x0000000000000000       0x34 CMakeFiles/telitHost.dir/mnt/LinuxApps/PicoSDK/pico-sdk/src/rp2_common/pico_float/float_math.c.obj
 .debug_frame   0x0000000000000000      0x3a4 CMakeFiles/telitHost.dir/mnt/LinuxApps/PicoSDK/pico-sdk/src/rp2_common/pico_float/float_math.c.obj
 .ARM.attributes
                0x0000000000000000       0x2c CMakeFiles/telitHost.dir/mnt/LinuxApps/PicoSDK/pico-sdk/src/rp2_common/pico_float/float_math.c.obj
 .text          0x0000000000000000        0x0 CMakeFiles/telitHost.dir/mnt/LinuxApps/PicoSDK/pico-sdk/src/rp2_common/pico_float/float_v1_rom_shim.S.obj
 .data          0x0000000000000000        0x0 CMakeFiles/telitHost.dir/mnt/LinuxApps/PicoSDK/pico-sdk/src/rp2_common/pico_float/float_v1_rom_shim.S.obj
 .bss           0x0000000000000000        0x0 CMakeFiles/telitHost.dir/mnt/LinuxApps/PicoSDK/pico-sdk/src/rp2_common/pico_float/float_v1_rom_shim.S.obj
 .text.642float_shims
                0x0000000000000000       0x44 CMakeFiles/telitHost.dir/mnt/LinuxApps/PicoSDK/pico-sdk/src/rp2_common/pico_float/float_v1_rom_shim.S.obj
 .text.fatan2_shim
                0x0000000000000000       0x88 CMakeFiles/telitHost.dir/mnt/LinuxApps/PicoSDK/pico-sdk/src/rp2_common/pico_float/float_v1_rom_shim.S.obj
 .text.float232_shims
                0x0000000000000000       0x18 CMakeFiles/telitHost.dir/mnt/LinuxApps/PicoSDK/pico-sdk/src/rp2_common/pico_float/float_v1_rom_shim.S.obj
 .text.float264_shims
                0x0000000000000000       0x4c CMakeFiles/telitHost.dir/mnt/LinuxApps/PicoSDK/pico-sdk/src/rp2_common/pico_float/float_v1_rom_shim.S.obj
 .text.d2fix_a_float
                0x0000000000000000       0x5c CMakeFiles/telitHost.dir/mnt/LinuxApps/PicoSDK/pico-sdk/src/rp2_common/pico_float/float_v1_rom_shim.S.obj
 .text.float2double_shim
                0x0000000000000000       0x30 CMakeFiles/telitHost.dir/mnt/LinuxApps/PicoSDK/pico-sdk/src/rp2_common/pico_float/float_v1_rom_shim.S.obj
 .text          0x0000000000000000        0x0 CMakeFiles/telitHost.dir/mnt/LinuxApps/PicoSDK/pico-sdk/src/rp2_common/pico_malloc/pico_malloc.c.obj
 .data          0x0000000000000000        0x0 CMakeFiles/telitHost.dir/mnt/LinuxApps/PicoSDK/pico-sdk/src/rp2_common/pico_malloc/pico_malloc.c.obj
 .bss           0x0000000000000000        0x0 CMakeFiles/telitHost.dir/mnt/LinuxApps/PicoSDK/pico-sdk/src/rp2_common/pico_malloc/pico_malloc.c.obj
 .text.__wrap_calloc
                0x0000000000000000       0x24 CMakeFiles/telitHost.dir/mnt/LinuxApps/PicoSDK/pico-sdk/src/rp2_common/pico_malloc/pico_malloc.c.obj
 .data          0x0000000000000000        0x0 CMakeFiles/telitHost.dir/mnt/LinuxApps/PicoSDK/pico-sdk/src/rp2_common/pico_mem_ops/mem_ops_aeabi.S.obj
 .bss           0x0000000000000000        0x0 CMakeFiles/telitHost.dir/mnt/LinuxApps/PicoSDK/pico-sdk/src/rp2_common/pico_mem_ops/mem_ops_aeabi.S.obj
 .text.aeabi_memset_memcpy
                0x0000000000000000       0x24 CMakeFiles/telitHost.dir/mnt/LinuxApps/PicoSDK/pico-sdk/src/rp2_common/pico_mem_ops/mem_ops_aeabi.S.obj
 .text          0x0000000000000000        0x0 CMakeFiles/telitHost.dir/mnt/LinuxApps/PicoSDK/pico-sdk/src/rp2_common/pico_standard_link/crt0.S.obj
 .data          0x0000000000000000        0x0 CMakeFiles/telitHost.dir/mnt/LinuxApps/PicoSDK/pico-sdk/src/rp2_common/pico_standard_link/crt0.S.obj
 .bss           0x0000000000000000        0x0 CMakeFiles/telitHost.dir/mnt/LinuxApps/PicoSDK/pico-sdk/src/rp2_common/pico_standard_link/crt0.S.obj
 .text          0x0000000000000000        0x0 CMakeFiles/telitHost.dir/mnt/LinuxApps/PicoSDK/pico-sdk/src/rp2_common/pico_standard_link/new_delete.cpp.obj
 .data          0x0000000000000000        0x0 CMakeFiles/telitHost.dir/mnt/LinuxApps/PicoSDK/pico-sdk/src/rp2_common/pico_standard_link/new_delete.cpp.obj
 .bss           0x0000000000000000        0x0 CMakeFiles/telitHost.dir/mnt/LinuxApps/PicoSDK/pico-sdk/src/rp2_common/pico_standard_link/new_delete.cpp.obj
 .text._Znwj    0x0000000000000000        0x8 CMakeFiles/telitHost.dir/mnt/LinuxApps/PicoSDK/pico-sdk/src/rp2_common/pico_standard_link/new_delete.cpp.obj
 .text._Znaj    0x0000000000000000        0x8 CMakeFiles/telitHost.dir/mnt/LinuxApps/PicoSDK/pico-sdk/src/rp2_common/pico_standard_link/new_delete.cpp.obj
 .text._ZdlPv   0x0000000000000000        0x8 CMakeFiles/telitHost.dir/mnt/LinuxApps/PicoSDK/pico-sdk/src/rp2_common/pico_standard_link/new_delete.cpp.obj
 .text._ZdaPv   0x0000000000000000        0x8 CMakeFiles/telitHost.dir/mnt/LinuxApps/PicoSDK/pico-sdk/src/rp2_common/pico_standard_link/new_delete.cpp.obj
 .text._ZdlPvj  0x0000000000000000        0x8 CMakeFiles/telitHost.dir/mnt/LinuxApps/PicoSDK/pico-sdk/src/rp2_common/pico_standard_link/new_delete.cpp.obj
 .text._ZdaPvj  0x0000000000000000        0x8 CMakeFiles/telitHost.dir/mnt/LinuxApps/PicoSDK/pico-sdk/src/rp2_common/pico_standard_link/new_delete.cpp.obj
 .debug_info    0x0000000000000000      0x7a0 CMakeFiles/telitHost.dir/mnt/LinuxApps/PicoSDK/pico-sdk/src/rp2_common/pico_standard_link/new_delete.cpp.obj
 .debug_abbrev  0x0000000000000000      0x1eb CMakeFiles/telitHost.dir/mnt/LinuxApps/PicoSDK/pico-sdk/src/rp2_common/pico_standard_link/new_delete.cpp.obj
 .debug_loc     0x0000000000000000      0x128 CMakeFiles/telitHost.dir/mnt/LinuxApps/PicoSDK/pico-sdk/src/rp2_common/pico_standard_link/new_delete.cpp.obj
 .debug_aranges
                0x0000000000000000       0x48 CMakeFiles/telitHost.dir/mnt/LinuxApps/PicoSDK/pico-sdk/src/rp2_common/pico_standard_link/new_delete.cpp.obj
 .debug_ranges  0x0000000000000000       0x38 CMakeFiles/telitHost.dir/mnt/LinuxApps/PicoSDK/pico-sdk/src/rp2_common/pico_standard_link/new_delete.cpp.obj
 .debug_line    0x0000000000000000      0x204 CMakeFiles/telitHost.dir/mnt/LinuxApps/PicoSDK/pico-sdk/src/rp2_common/pico_standard_link/new_delete.cpp.obj
 .debug_str     0x0000000000000000      0x3a1 CMakeFiles/telitHost.dir/mnt/LinuxApps/PicoSDK/pico-sdk/src/rp2_common/pico_standard_link/new_delete.cpp.obj
 .comment       0x0000000000000000       0x34 CMakeFiles/telitHost.dir/mnt/LinuxApps/PicoSDK/pico-sdk/src/rp2_common/pico_standard_link/new_delete.cpp.obj
 .debug_frame   0x0000000000000000       0xa0 CMakeFiles/telitHost.dir/mnt/LinuxApps/PicoSDK/pico-sdk/src/rp2_common/pico_standard_link/new_delete.cpp.obj
 .ARM.attributes
                0x0000000000000000       0x2c CMakeFiles/telitHost.dir/mnt/LinuxApps/PicoSDK/pico-sdk/src/rp2_common/pico_standard_link/new_delete.cpp.obj
 .text          0x0000000000000000        0x0 CMakeFiles/telitHost.dir/mnt/LinuxApps/PicoSDK/pico-sdk/src/rp2_common/pico_standard_link/binary_info.c.obj
 .data          0x0000000000000000        0x0 CMakeFiles/telitHost.dir/mnt/LinuxApps/PicoSDK/pico-sdk/src/rp2_common/pico_standard_link/binary_info.c.obj
 .bss           0x0000000000000000        0x0 CMakeFiles/telitHost.dir/mnt/LinuxApps/PicoSDK/pico-sdk/src/rp2_common/pico_standard_link/binary_info.c.obj
 .text          0x0000000000000000        0x0 CMakeFiles/telitHost.dir/mnt/LinuxApps/PicoSDK/pico-sdk/src/rp2_common/pico_stdio/stdio.c.obj
 .data          0x0000000000000000        0x0 CMakeFiles/telitHost.dir/mnt/LinuxApps/PicoSDK/pico-sdk/src/rp2_common/pico_stdio/stdio.c.obj
 .bss           0x0000000000000000        0x0 CMakeFiles/telitHost.dir/mnt/LinuxApps/PicoSDK/pico-sdk/src/rp2_common/pico_stdio/stdio.c.obj
 .text.__wrap_putchar
                0x0000000000000000       0x1c CMakeFiles/telitHost.dir/mnt/LinuxApps/PicoSDK/pico-sdk/src/rp2_common/pico_stdio/stdio.c.obj
 .text.putchar_raw
                0x0000000000000000       0x1c CMakeFiles/telitHost.dir/mnt/LinuxApps/PicoSDK/pico-sdk/src/rp2_common/pico_stdio/stdio.c.obj
 .text._read    0x0000000000000000       0x24 CMakeFiles/telitHost.dir/mnt/LinuxApps/PicoSDK/pico-sdk/src/rp2_common/pico_stdio/stdio.c.obj
 .text._write   0x0000000000000000       0x20 CMakeFiles/telitHost.dir/mnt/LinuxApps/PicoSDK/pico-sdk/src/rp2_common/pico_stdio/stdio.c.obj
 .text.puts_raw
                0x0000000000000000       0x1e CMakeFiles/telitHost.dir/mnt/LinuxApps/PicoSDK/pico-sdk/src/rp2_common/pico_stdio/stdio.c.obj
 .text.__wrap_getchar
                0x0000000000000000       0x40 CMakeFiles/telitHost.dir/mnt/LinuxApps/PicoSDK/pico-sdk/src/rp2_common/pico_stdio/stdio.c.obj
 .text.stdio_filter_driver
                0x0000000000000000        0xc CMakeFiles/telitHost.dir/mnt/LinuxApps/PicoSDK/pico-sdk/src/rp2_common/pico_stdio/stdio.c.obj
 .text.stdio_set_translate_crlf
                0x0000000000000000       0x10 CMakeFiles/telitHost.dir/mnt/LinuxApps/PicoSDK/pico-sdk/src/rp2_common/pico_stdio/stdio.c.obj
 .rodata.__func__.2
                0x0000000000000000        0xf CMakeFiles/telitHost.dir/mnt/LinuxApps/PicoSDK/pico-sdk/src/rp2_common/pico_stdio/stdio.c.obj
 .text          0x0000000000000000        0x0 CMakeFiles/telitHost.dir/mnt/LinuxApps/PicoSDK/pico-sdk/src/rp2_common/pico_stdio_usb/reset_interface.c.obj
 .data          0x0000000000000000        0x0 CMakeFiles/telitHost.dir/mnt/LinuxApps/PicoSDK/pico-sdk/src/rp2_common/pico_stdio_usb/reset_interface.c.obj
 .bss           0x0000000000000000        0x0 CMakeFiles/telitHost.dir/mnt/LinuxApps/PicoSDK/pico-sdk/src/rp2_common/pico_stdio_usb/reset_interface.c.obj
 .text          0x0000000000000000        0x0 CMakeFiles/telitHost.dir/mnt/LinuxApps/PicoSDK/pico-sdk/src/rp2_common/pico_stdio_usb/stdio_usb.c.obj
 .data          0x0000000000000000        0x0 CMakeFiles/telitHost.dir/mnt/LinuxApps/PicoSDK/pico-sdk/src/rp2_common/pico_stdio_usb/stdio_usb.c.obj
 .bss           0x0000000000000000        0x0 CMakeFiles/telitHost.dir/mnt/LinuxApps/PicoSDK/pico-sdk/src/rp2_common/pico_stdio_usb/stdio_usb.c.obj
 .text.stdio_usb_connected
                0x0000000000000000        0xa CMakeFiles/telitHost.dir/mnt/LinuxApps/PicoSDK/pico-sdk/src/rp2_common/pico_stdio_usb/stdio_usb.c.obj
 .text          0x0000000000000000        0x0 CMakeFiles/telitHost.dir/mnt/LinuxApps/PicoSDK/pico-sdk/src/rp2_common/pico_stdio_usb/stdio_usb_descriptors.c.obj
 .data          0x0000000000000000        0x0 CMakeFiles/telitHost.dir/mnt/LinuxApps/PicoSDK/pico-sdk/src/rp2_common/pico_stdio_usb/stdio_usb_descriptors.c.obj
 .bss           0x0000000000000000        0x0 CMakeFiles/telitHost.dir/mnt/LinuxApps/PicoSDK/pico-sdk/src/rp2_common/pico_stdio_usb/stdio_usb_descriptors.c.obj
 .text          0x0000000000000000        0x0 CMakeFiles/telitHost.dir/mnt/LinuxApps/PicoSDK/pico-sdk/lib/tinyusb/src/portable/raspberrypi/rp2040/dcd_rp2040.c.obj
 .data          0x0000000000000000        0x0 CMakeFiles/telitHost.dir/mnt/LinuxApps/PicoSDK/pico-sdk/lib/tinyusb/src/portable/raspberrypi/rp2040/dcd_rp2040.c.obj
 .bss           0x0000000000000000        0x0 CMakeFiles/telitHost.dir/mnt/LinuxApps/PicoSDK/pico-sdk/lib/tinyusb/src/portable/raspberrypi/rp2040/dcd_rp2040.c.obj
 .text.dcd_int_disable
                0x0000000000000000       0x2c CMakeFiles/telitHost.dir/mnt/LinuxApps/PicoSDK/pico-sdk/lib/tinyusb/src/portable/raspberrypi/rp2040/dcd_rp2040.c.obj
 .text.dcd_remote_wakeup
                0x0000000000000000       0x30 CMakeFiles/telitHost.dir/mnt/LinuxApps/PicoSDK/pico-sdk/lib/tinyusb/src/portable/raspberrypi/rp2040/dcd_rp2040.c.obj
 .text.dcd_disconnect
                0x0000000000000000       0x10 CMakeFiles/telitHost.dir/mnt/LinuxApps/PicoSDK/pico-sdk/lib/tinyusb/src/portable/raspberrypi/rp2040/dcd_rp2040.c.obj
 .text.dcd_edpt_close
                0x0000000000000000        0x2 CMakeFiles/telitHost.dir/mnt/LinuxApps/PicoSDK/pico-sdk/lib/tinyusb/src/portable/raspberrypi/rp2040/dcd_rp2040.c.obj
 .text.dcd_int_handler
                0x0000000000000000        0x8 CMakeFiles/telitHost.dir/mnt/LinuxApps/PicoSDK/pico-sdk/lib/tinyusb/src/portable/raspberrypi/rp2040/dcd_rp2040.c.obj
 .rodata.__func__.2
                0x0000000000000000       0x12 CMakeFiles/telitHost.dir/mnt/LinuxApps/PicoSDK/pico-sdk/lib/tinyusb/src/portable/raspberrypi/rp2040/dcd_rp2040.c.obj
 .rodata.__func__.4
                0x0000000000000000       0x10 CMakeFiles/telitHost.dir/mnt/LinuxApps/PicoSDK/pico-sdk/lib/tinyusb/src/portable/raspberrypi/rp2040/dcd_rp2040.c.obj
 .text          0x0000000000000000        0x0 CMakeFiles/telitHost.dir/mnt/LinuxApps/PicoSDK/pico-sdk/lib/tinyusb/src/portable/raspberrypi/rp2040/rp2040_usb.c.obj
 .data          0x0000000000000000        0x0 CMakeFiles/telitHost.dir/mnt/LinuxApps/PicoSDK/pico-sdk/lib/tinyusb/src/portable/raspberrypi/rp2040/rp2040_usb.c.obj
 .bss           0x0000000000000000        0x0 CMakeFiles/telitHost.dir/mnt/LinuxApps/PicoSDK/pico-sdk/lib/tinyusb/src/portable/raspberrypi/rp2040/rp2040_usb.c.obj
 .text          0x0000000000000000        0x0 CMakeFiles/telitHost.dir/mnt/LinuxApps/PicoSDK/pico-sdk/lib/tinyusb/src/device/usbd.c.obj
 .data          0x0000000000000000        0x0 CMakeFiles/telitHost.dir/mnt/LinuxApps/PicoSDK/pico-sdk/lib/tinyusb/src/device/usbd.c.obj
 .bss           0x0000000000000000        0x0 CMakeFiles/telitHost.dir/mnt/LinuxApps/PicoSDK/pico-sdk/lib/tinyusb/src/device/usbd.c.obj
 .text.tud_speed_get
                0x0000000000000000        0xc CMakeFiles/telitHost.dir/mnt/LinuxApps/PicoSDK/pico-sdk/lib/tinyusb/src/device/usbd.c.obj
 .text.tud_connected
                0x0000000000000000       0x10 CMakeFiles/telitHost.dir/mnt/LinuxApps/PicoSDK/pico-sdk/lib/tinyusb/src/device/usbd.c.obj
 .text.tud_remote_wakeup
                0x0000000000000000       0x2c CMakeFiles/telitHost.dir/mnt/LinuxApps/PicoSDK/pico-sdk/lib/tinyusb/src/device/usbd.c.obj
 .text.tud_disconnect
                0x0000000000000000       0x1c CMakeFiles/telitHost.dir/mnt/LinuxApps/PicoSDK/pico-sdk/lib/tinyusb/src/device/usbd.c.obj
 .text.tud_connect
                0x0000000000000000       0x1c CMakeFiles/telitHost.dir/mnt/LinuxApps/PicoSDK/pico-sdk/lib/tinyusb/src/device/usbd.c.obj
 .text.tud_task_event_ready
                0x0000000000000000       0x20 CMakeFiles/telitHost.dir/mnt/LinuxApps/PicoSDK/pico-sdk/lib/tinyusb/src/device/usbd.c.obj
 .text.usbd_defer_func
                0x0000000000000000       0x2a CMakeFiles/telitHost.dir/mnt/LinuxApps/PicoSDK/pico-sdk/lib/tinyusb/src/device/usbd.c.obj
 .text.usbd_edpt_xfer_fifo
                0x0000000000000000       0x80 CMakeFiles/telitHost.dir/mnt/LinuxApps/PicoSDK/pico-sdk/lib/tinyusb/src/device/usbd.c.obj
 .text.usbd_edpt_busy
                0x0000000000000000       0x1c CMakeFiles/telitHost.dir/mnt/LinuxApps/PicoSDK/pico-sdk/lib/tinyusb/src/device/usbd.c.obj
 .text.usbd_edpt_close
                0x0000000000000000       0x58 CMakeFiles/telitHost.dir/mnt/LinuxApps/PicoSDK/pico-sdk/lib/tinyusb/src/device/usbd.c.obj
 .rodata.__func__.0
                0x0000000000000000       0x10 CMakeFiles/telitHost.dir/mnt/LinuxApps/PicoSDK/pico-sdk/lib/tinyusb/src/device/usbd.c.obj
 .rodata.__func__.1
                0x0000000000000000       0x14 CMakeFiles/telitHost.dir/mnt/LinuxApps/PicoSDK/pico-sdk/lib/tinyusb/src/device/usbd.c.obj
 .text          0x0000000000000000        0x0 CMakeFiles/telitHost.dir/mnt/LinuxApps/PicoSDK/pico-sdk/lib/tinyusb/src/device/usbd_control.c.obj
 .data          0x0000000000000000        0x0 CMakeFiles/telitHost.dir/mnt/LinuxApps/PicoSDK/pico-sdk/lib/tinyusb/src/device/usbd_control.c.obj
 .bss           0x0000000000000000        0x0 CMakeFiles/telitHost.dir/mnt/LinuxApps/PicoSDK/pico-sdk/lib/tinyusb/src/device/usbd_control.c.obj
 .text          0x0000000000000000        0x0 CMakeFiles/telitHost.dir/mnt/LinuxApps/PicoSDK/pico-sdk/lib/tinyusb/src/class/audio/audio_device.c.obj
 .data          0x0000000000000000        0x0 CMakeFiles/telitHost.dir/mnt/LinuxApps/PicoSDK/pico-sdk/lib/tinyusb/src/class/audio/audio_device.c.obj
 .bss           0x0000000000000000        0x0 CMakeFiles/telitHost.dir/mnt/LinuxApps/PicoSDK/pico-sdk/lib/tinyusb/src/class/audio/audio_device.c.obj
 .debug_info    0x0000000000000000       0x6b CMakeFiles/telitHost.dir/mnt/LinuxApps/PicoSDK/pico-sdk/lib/tinyusb/src/class/audio/audio_device.c.obj
 .debug_abbrev  0x0000000000000000       0x26 CMakeFiles/telitHost.dir/mnt/LinuxApps/PicoSDK/pico-sdk/lib/tinyusb/src/class/audio/audio_device.c.obj
 .debug_aranges
                0x0000000000000000       0x18 CMakeFiles/telitHost.dir/mnt/LinuxApps/PicoSDK/pico-sdk/lib/tinyusb/src/class/audio/audio_device.c.obj
 .debug_line    0x0000000000000000       0x1d CMakeFiles/telitHost.dir/mnt/LinuxApps/PicoSDK/pico-sdk/lib/tinyusb/src/class/audio/audio_device.c.obj
 .debug_str     0x0000000000000000      0x19e CMakeFiles/telitHost.dir/mnt/LinuxApps/PicoSDK/pico-sdk/lib/tinyusb/src/class/audio/audio_device.c.obj
 .comment       0x0000000000000000       0x34 CMakeFiles/telitHost.dir/mnt/LinuxApps/PicoSDK/pico-sdk/lib/tinyusb/src/class/audio/audio_device.c.obj
 .ARM.attributes
                0x0000000000000000       0x32 CMakeFiles/telitHost.dir/mnt/LinuxApps/PicoSDK/pico-sdk/lib/tinyusb/src/class/audio/audio_device.c.obj
 .text          0x0000000000000000        0x0 CMakeFiles/telitHost.dir/mnt/LinuxApps/PicoSDK/pico-sdk/lib/tinyusb/src/class/cdc/cdc_device.c.obj
 .data          0x0000000000000000        0x0 CMakeFiles/telitHost.dir/mnt/LinuxApps/PicoSDK/pico-sdk/lib/tinyusb/src/class/cdc/cdc_device.c.obj
 .bss           0x0000000000000000        0x0 CMakeFiles/telitHost.dir/mnt/LinuxApps/PicoSDK/pico-sdk/lib/tinyusb/src/class/cdc/cdc_device.c.obj
 .text.tud_cdc_n_get_line_state
                0x0000000000000000       0x14 CMakeFiles/telitHost.dir/mnt/LinuxApps/PicoSDK/pico-sdk/lib/tinyusb/src/class/cdc/cdc_device.c.obj
 .text.tud_cdc_n_get_line_coding
                0x0000000000000000       0x20 CMakeFiles/telitHost.dir/mnt/LinuxApps/PicoSDK/pico-sdk/lib/tinyusb/src/class/cdc/cdc_device.c.obj
 .text.tud_cdc_n_set_wanted_char
                0x0000000000000000       0x14 CMakeFiles/telitHost.dir/mnt/LinuxApps/PicoSDK/pico-sdk/lib/tinyusb/src/class/cdc/cdc_device.c.obj
 .text.tud_cdc_n_peek
                0x0000000000000000       0x18 CMakeFiles/telitHost.dir/mnt/LinuxApps/PicoSDK/pico-sdk/lib/tinyusb/src/class/cdc/cdc_device.c.obj
 .text.tud_cdc_n_read_flush
                0x0000000000000000       0x20 CMakeFiles/telitHost.dir/mnt/LinuxApps/PicoSDK/pico-sdk/lib/tinyusb/src/class/cdc/cdc_device.c.obj
 .text.tud_cdc_n_write_clear
                0x0000000000000000       0x1c CMakeFiles/telitHost.dir/mnt/LinuxApps/PicoSDK/pico-sdk/lib/tinyusb/src/class/cdc/cdc_device.c.obj
 .text          0x0000000000000000        0x0 CMakeFiles/telitHost.dir/mnt/LinuxApps/PicoSDK/pico-sdk/lib/tinyusb/src/class/dfu/dfu_device.c.obj
 .data          0x0000000000000000        0x0 CMakeFiles/telitHost.dir/mnt/LinuxApps/PicoSDK/pico-sdk/lib/tinyusb/src/class/dfu/dfu_device.c.obj
 .bss           0x0000000000000000        0x0 CMakeFiles/telitHost.dir/mnt/LinuxApps/PicoSDK/pico-sdk/lib/tinyusb/src/class/dfu/dfu_device.c.obj
 .debug_info    0x0000000000000000       0x6b CMakeFiles/telitHost.dir/mnt/LinuxApps/PicoSDK/pico-sdk/lib/tinyusb/src/class/dfu/dfu_device.c.obj
 .debug_abbrev  0x0000000000000000       0x26 CMakeFiles/telitHost.dir/mnt/LinuxApps/PicoSDK/pico-sdk/lib/tinyusb/src/class/dfu/dfu_device.c.obj
 .debug_aranges
                0x0000000000000000       0x18 CMakeFiles/telitHost.dir/mnt/LinuxApps/PicoSDK/pico-sdk/lib/tinyusb/src/class/dfu/dfu_device.c.obj
 .debug_line    0x0000000000000000       0x1d CMakeFiles/telitHost.dir/mnt/LinuxApps/PicoSDK/pico-sdk/lib/tinyusb/src/class/dfu/dfu_device.c.obj
 .debug_str     0x0000000000000000      0x19a CMakeFiles/telitHost.dir/mnt/LinuxApps/PicoSDK/pico-sdk/lib/tinyusb/src/class/dfu/dfu_device.c.obj
 .comment       0x0000000000000000       0x34 CMakeFiles/telitHost.dir/mnt/LinuxApps/PicoSDK/pico-sdk/lib/tinyusb/src/class/dfu/dfu_device.c.obj
 .ARM.attributes
                0x0000000000000000       0x32 CMakeFiles/telitHost.dir/mnt/LinuxApps/PicoSDK/pico-sdk/lib/tinyusb/src/class/dfu/dfu_device.c.obj
 .text          0x0000000000000000        0x0 CMakeFiles/telitHost.dir/mnt/LinuxApps/PicoSDK/pico-sdk/lib/tinyusb/src/class/dfu/dfu_rt_device.c.obj
 .data          0x0000000000000000        0x0 CMakeFiles/telitHost.dir/mnt/LinuxApps/PicoSDK/pico-sdk/lib/tinyusb/src/class/dfu/dfu_rt_device.c.obj
 .bss           0x0000000000000000        0x0 CMakeFiles/telitHost.dir/mnt/LinuxApps/PicoSDK/pico-sdk/lib/tinyusb/src/class/dfu/dfu_rt_device.c.obj
 .debug_info    0x0000000000000000       0x6b CMakeFiles/telitHost.dir/mnt/LinuxApps/PicoSDK/pico-sdk/lib/tinyusb/src/class/dfu/dfu_rt_device.c.obj
 .debug_abbrev  0x0000000000000000       0x26 CMakeFiles/telitHost.dir/mnt/LinuxApps/PicoSDK/pico-sdk/lib/tinyusb/src/class/dfu/dfu_rt_device.c.obj
 .debug_aranges
                0x0000000000000000       0x18 CMakeFiles/telitHost.dir/mnt/LinuxApps/PicoSDK/pico-sdk/lib/tinyusb/src/class/dfu/dfu_rt_device.c.obj
 .debug_line    0x0000000000000000       0x1d CMakeFiles/telitHost.dir/mnt/LinuxApps/PicoSDK/pico-sdk/lib/tinyusb/src/class/dfu/dfu_rt_device.c.obj
 .debug_str     0x0000000000000000      0x19d CMakeFiles/telitHost.dir/mnt/LinuxApps/PicoSDK/pico-sdk/lib/tinyusb/src/class/dfu/dfu_rt_device.c.obj
 .comment       0x0000000000000000       0x34 CMakeFiles/telitHost.dir/mnt/LinuxApps/PicoSDK/pico-sdk/lib/tinyusb/src/class/dfu/dfu_rt_device.c.obj
 .ARM.attributes
                0x0000000000000000       0x32 CMakeFiles/telitHost.dir/mnt/LinuxApps/PicoSDK/pico-sdk/lib/tinyusb/src/class/dfu/dfu_rt_device.c.obj
 .text          0x0000000000000000        0x0 CMakeFiles/telitHost.dir/mnt/LinuxApps/PicoSDK/pico-sdk/lib/tinyusb/src/class/hid/hid_device.c.obj
 .data          0x0000000000000000        0x0 CMakeFiles/telitHost.dir/mnt/LinuxApps/PicoSDK/pico-sdk/lib/tinyusb/src/class/hid/hid_device.c.obj
 .bss           0x0000000000000000        0x0 CMakeFiles/telitHost.dir/mnt/LinuxApps/PicoSDK/pico-sdk/lib/tinyusb/src/class/hid/hid_device.c.obj
 .debug_info    0x0000000000000000       0x6b CMakeFiles/telitHost.dir/mnt/LinuxApps/PicoSDK/pico-sdk/lib/tinyusb/src/class/hid/hid_device.c.obj
 .debug_abbrev  0x0000000000000000       0x26 CMakeFiles/telitHost.dir/mnt/LinuxApps/PicoSDK/pico-sdk/lib/tinyusb/src/class/hid/hid_device.c.obj
 .debug_aranges
                0x0000000000000000       0x18 CMakeFiles/telitHost.dir/mnt/LinuxApps/PicoSDK/pico-sdk/lib/tinyusb/src/class/hid/hid_device.c.obj
 .debug_line    0x0000000000000000       0x1d CMakeFiles/telitHost.dir/mnt/LinuxApps/PicoSDK/pico-sdk/lib/tinyusb/src/class/hid/hid_device.c.obj
 .debug_str     0x0000000000000000      0x19a CMakeFiles/telitHost.dir/mnt/LinuxApps/PicoSDK/pico-sdk/lib/tinyusb/src/class/hid/hid_device.c.obj
 .comment       0x0000000000000000       0x34 CMakeFiles/telitHost.dir/mnt/LinuxApps/PicoSDK/pico-sdk/lib/tinyusb/src/class/hid/hid_device.c.obj
 .ARM.attributes
                0x0000000000000000       0x32 CMakeFiles/telitHost.dir/mnt/LinuxApps/PicoSDK/pico-sdk/lib/tinyusb/src/class/hid/hid_device.c.obj
 .text          0x0000000000000000        0x0 CMakeFiles/telitHost.dir/mnt/LinuxApps/PicoSDK/pico-sdk/lib/tinyusb/src/class/midi/midi_device.c.obj
 .data          0x0000000000000000        0x0 CMakeFiles/telitHost.dir/mnt/LinuxApps/PicoSDK/pico-sdk/lib/tinyusb/src/class/midi/midi_device.c.obj
 .bss           0x0000000000000000        0x0 CMakeFiles/telitHost.dir/mnt/LinuxApps/PicoSDK/pico-sdk/lib/tinyusb/src/class/midi/midi_device.c.obj
 .debug_info    0x0000000000000000       0x6b CMakeFiles/telitHost.dir/mnt/LinuxApps/PicoSDK/pico-sdk/lib/tinyusb/src/class/midi/midi_device.c.obj
 .debug_abbrev  0x0000000000000000       0x26 CMakeFiles/telitHost.dir/mnt/LinuxApps/PicoSDK/pico-sdk/lib/tinyusb/src/class/midi/midi_device.c.obj
 .debug_aranges
                0x0000000000000000       0x18 CMakeFiles/telitHost.dir/mnt/LinuxApps/PicoSDK/pico-sdk/lib/tinyusb/src/class/midi/midi_device.c.obj
 .debug_line    0x0000000000000000       0x1d CMakeFiles/telitHost.dir/mnt/LinuxApps/PicoSDK/pico-sdk/lib/tinyusb/src/class/midi/midi_device.c.obj
 .debug_str     0x0000000000000000      0x19c CMakeFiles/telitHost.dir/mnt/LinuxApps/PicoSDK/pico-sdk/lib/tinyusb/src/class/midi/midi_device.c.obj
 .comment       0x0000000000000000       0x34 CMakeFiles/telitHost.dir/mnt/LinuxApps/PicoSDK/pico-sdk/lib/tinyusb/src/class/midi/midi_device.c.obj
 .ARM.attributes
                0x0000000000000000       0x32 CMakeFiles/telitHost.dir/mnt/LinuxApps/PicoSDK/pico-sdk/lib/tinyusb/src/class/midi/midi_device.c.obj
 .text          0x0000000000000000        0x0 CMakeFiles/telitHost.dir/mnt/LinuxApps/PicoSDK/pico-sdk/lib/tinyusb/src/class/msc/msc_device.c.obj
 .data          0x0000000000000000        0x0 CMakeFiles/telitHost.dir/mnt/LinuxApps/PicoSDK/pico-sdk/lib/tinyusb/src/class/msc/msc_device.c.obj
 .bss           0x0000000000000000        0x0 CMakeFiles/telitHost.dir/mnt/LinuxApps/PicoSDK/pico-sdk/lib/tinyusb/src/class/msc/msc_device.c.obj
 .debug_info    0x0000000000000000       0x6b CMakeFiles/telitHost.dir/mnt/LinuxApps/PicoSDK/pico-sdk/lib/tinyusb/src/class/msc/msc_device.c.obj
 .debug_abbrev  0x0000000000000000       0x26 CMakeFiles/telitHost.dir/mnt/LinuxApps/PicoSDK/pico-sdk/lib/tinyusb/src/class/msc/msc_device.c.obj
 .debug_aranges
                0x0000000000000000       0x18 CMakeFiles/telitHost.dir/mnt/LinuxApps/PicoSDK/pico-sdk/lib/tinyusb/src/class/msc/msc_device.c.obj
 .debug_line    0x0000000000000000       0x1d CMakeFiles/telitHost.dir/mnt/LinuxApps/PicoSDK/pico-sdk/lib/tinyusb/src/class/msc/msc_device.c.obj
 .debug_str     0x0000000000000000      0x19a CMakeFiles/telitHost.dir/mnt/LinuxApps/PicoSDK/pico-sdk/lib/tinyusb/src/class/msc/msc_device.c.obj
 .comment       0x0000000000000000       0x34 CMakeFiles/telitHost.dir/mnt/LinuxApps/PicoSDK/pico-sdk/lib/tinyusb/src/class/msc/msc_device.c.obj
 .ARM.attributes
                0x0000000000000000       0x32 CMakeFiles/telitHost.dir/mnt/LinuxApps/PicoSDK/pico-sdk/lib/tinyusb/src/class/msc/msc_device.c.obj
 .text          0x0000000000000000        0x0 CMakeFiles/telitHost.dir/mnt/LinuxApps/PicoSDK/pico-sdk/lib/tinyusb/src/class/net/ecm_rndis_device.c.obj
 .data          0x0000000000000000        0x0 CMakeFiles/telitHost.dir/mnt/LinuxApps/PicoSDK/pico-sdk/lib/tinyusb/src/class/net/ecm_rndis_device.c.obj
 .bss           0x0000000000000000        0x0 CMakeFiles/telitHost.dir/mnt/LinuxApps/PicoSDK/pico-sdk/lib/tinyusb/src/class/net/ecm_rndis_device.c.obj
 .debug_info    0x0000000000000000       0x6b CMakeFiles/telitHost.dir/mnt/LinuxApps/PicoSDK/pico-sdk/lib/tinyusb/src/class/net/ecm_rndis_device.c.obj
 .debug_abbrev  0x0000000000000000       0x26 CMakeFiles/telitHost.dir/mnt/LinuxApps/PicoSDK/pico-sdk/lib/tinyusb/src/class/net/ecm_rndis_device.c.obj
 .debug_aranges
                0x0000000000000000       0x18 CMakeFiles/telitHost.dir/mnt/LinuxApps/PicoSDK/pico-sdk/lib/tinyusb/src/class/net/ecm_rndis_device.c.obj
 .debug_line    0x0000000000000000       0x1d CMakeFiles/telitHost.dir/mnt/LinuxApps/PicoSDK/pico-sdk/lib/tinyusb/src/class/net/ecm_rndis_device.c.obj
 .debug_str     0x0000000000000000      0x1a0 CMakeFiles/telitHost.dir/mnt/LinuxApps/PicoSDK/pico-sdk/lib/tinyusb/src/class/net/ecm_rndis_device.c.obj
 .comment       0x0000000000000000       0x34 CMakeFiles/telitHost.dir/mnt/LinuxApps/PicoSDK/pico-sdk/lib/tinyusb/src/class/net/ecm_rndis_device.c.obj
 .ARM.attributes
                0x0000000000000000       0x32 CMakeFiles/telitHost.dir/mnt/LinuxApps/PicoSDK/pico-sdk/lib/tinyusb/src/class/net/ecm_rndis_device.c.obj
 .text          0x0000000000000000        0x0 CMakeFiles/telitHost.dir/mnt/LinuxApps/PicoSDK/pico-sdk/lib/tinyusb/src/class/net/ncm_device.c.obj
 .data          0x0000000000000000        0x0 CMakeFiles/telitHost.dir/mnt/LinuxApps/PicoSDK/pico-sdk/lib/tinyusb/src/class/net/ncm_device.c.obj
 .bss           0x0000000000000000        0x0 CMakeFiles/telitHost.dir/mnt/LinuxApps/PicoSDK/pico-sdk/lib/tinyusb/src/class/net/ncm_device.c.obj
 .debug_info    0x0000000000000000       0x6b CMakeFiles/telitHost.dir/mnt/LinuxApps/PicoSDK/pico-sdk/lib/tinyusb/src/class/net/ncm_device.c.obj
 .debug_abbrev  0x0000000000000000       0x26 CMakeFiles/telitHost.dir/mnt/LinuxApps/PicoSDK/pico-sdk/lib/tinyusb/src/class/net/ncm_device.c.obj
 .debug_aranges
                0x0000000000000000       0x18 CMakeFiles/telitHost.dir/mnt/LinuxApps/PicoSDK/pico-sdk/lib/tinyusb/src/class/net/ncm_device.c.obj
 .debug_line    0x0000000000000000       0x1d CMakeFiles/telitHost.dir/mnt/LinuxApps/PicoSDK/pico-sdk/lib/tinyusb/src/class/net/ncm_device.c.obj
 .debug_str     0x0000000000000000      0x19a CMakeFiles/telitHost.dir/mnt/LinuxApps/PicoSDK/pico-sdk/lib/tinyusb/src/class/net/ncm_device.c.obj
 .comment       0x0000000000000000       0x34 CMakeFiles/telitHost.dir/mnt/LinuxApps/PicoSDK/pico-sdk/lib/tinyusb/src/class/net/ncm_device.c.obj
 .ARM.attributes
                0x0000000000000000       0x32 CMakeFiles/telitHost.dir/mnt/LinuxApps/PicoSDK/pico-sdk/lib/tinyusb/src/class/net/ncm_device.c.obj
 .text          0x0000000000000000        0x0 CMakeFiles/telitHost.dir/mnt/LinuxApps/PicoSDK/pico-sdk/lib/tinyusb/src/class/usbtmc/usbtmc_device.c.obj
 .data          0x0000000000000000        0x0 CMakeFiles/telitHost.dir/mnt/LinuxApps/PicoSDK/pico-sdk/lib/tinyusb/src/class/usbtmc/usbtmc_device.c.obj
 .bss           0x0000000000000000        0x0 CMakeFiles/telitHost.dir/mnt/LinuxApps/PicoSDK/pico-sdk/lib/tinyusb/src/class/usbtmc/usbtmc_device.c.obj
 .debug_info    0x0000000000000000       0x6b CMakeFiles/telitHost.dir/mnt/LinuxApps/PicoSDK/pico-sdk/lib/tinyusb/src/class/usbtmc/usbtmc_device.c.obj
 .debug_abbrev  0x0000000000000000       0x26 CMakeFiles/telitHost.dir/mnt/LinuxApps/PicoSDK/pico-sdk/lib/tinyusb/src/class/usbtmc/usbtmc_device.c.obj
 .debug_aranges
                0x0000000000000000       0x18 CMakeFiles/telitHost.dir/mnt/LinuxApps/PicoSDK/pico-sdk/lib/tinyusb/src/class/usbtmc/usbtmc_device.c.obj
 .debug_line    0x0000000000000000       0x1d CMakeFiles/telitHost.dir/mnt/LinuxApps/PicoSDK/pico-sdk/lib/tinyusb/src/class/usbtmc/usbtmc_device.c.obj
 .debug_str     0x0000000000000000      0x1a0 CMakeFiles/telitHost.dir/mnt/LinuxApps/PicoSDK/pico-sdk/lib/tinyusb/src/class/usbtmc/usbtmc_device.c.obj
 .comment       0x0000000000000000       0x34 CMakeFiles/telitHost.dir/mnt/LinuxApps/PicoSDK/pico-sdk/lib/tinyusb/src/class/usbtmc/usbtmc_device.c.obj
 .ARM.attributes
                0x0000000000000000       0x32 CMakeFiles/telitHost.dir/mnt/LinuxApps/PicoSDK/pico-sdk/lib/tinyusb/src/class/usbtmc/usbtmc_device.c.obj
 .text          0x0000000000000000        0x0 CMakeFiles/telitHost.dir/mnt/LinuxApps/PicoSDK/pico-sdk/lib/tinyusb/src/class/vendor/vendor_device.c.obj
 .data          0x0000000000000000        0x0 CMakeFiles/telitHost.dir/mnt/LinuxApps/PicoSDK/pico-sdk/lib/tinyusb/src/class/vendor/vendor_device.c.obj
 .bss           0x0000000000000000        0x0 CMakeFiles/telitHost.dir/mnt/LinuxApps/PicoSDK/pico-sdk/lib/tinyusb/src/class/vendor/vendor_device.c.obj
 .debug_info    0x0000000000000000       0x6b CMakeFiles/telitHost.dir/mnt/LinuxApps/PicoSDK/pico-sdk/lib/tinyusb/src/class/vendor/vendor_device.c.obj
 .debug_abbrev  0x0000000000000000       0x26 CMakeFiles/telitHost.dir/mnt/LinuxApps/PicoSDK/pico-sdk/lib/tinyusb/src/class/vendor/vendor_device.c.obj
 .debug_aranges
                0x0000000000000000       0x18 CMakeFiles/telitHost.dir/mnt/LinuxApps/PicoSDK/pico-sdk/lib/tinyusb/src/class/vendor/vendor_device.c.obj
 .debug_line    0x0000000000000000       0x1d CMakeFiles/telitHost.dir/mnt/LinuxApps/PicoSDK/pico-sdk/lib/tinyusb/src/class/vendor/vendor_device.c.obj
 .debug_str     0x0000000000000000      0x1a0 CMakeFiles/telitHost.dir/mnt/LinuxApps/PicoSDK/pico-sdk/lib/tinyusb/src/class/vendor/vendor_device.c.obj
 .comment       0x0000000000000000       0x34 CMakeFiles/telitHost.dir/mnt/LinuxApps/PicoSDK/pico-sdk/lib/tinyusb/src/class/vendor/vendor_device.c.obj
 .ARM.attributes
                0x0000000000000000       0x32 CMakeFiles/telitHost.dir/mnt/LinuxApps/PicoSDK/pico-sdk/lib/tinyusb/src/class/vendor/vendor_device.c.obj
 .text          0x0000000000000000        0x0 CMakeFiles/telitHost.dir/mnt/LinuxApps/PicoSDK/pico-sdk/lib/tinyusb/src/class/video/video_device.c.obj
 .data          0x0000000000000000        0x0 CMakeFiles/telitHost.dir/mnt/LinuxApps/PicoSDK/pico-sdk/lib/tinyusb/src/class/video/video_device.c.obj
 .bss           0x0000000000000000        0x0 CMakeFiles/telitHost.dir/mnt/LinuxApps/PicoSDK/pico-sdk/lib/tinyusb/src/class/video/video_device.c.obj
 .debug_info    0x0000000000000000       0x6b CMakeFiles/telitHost.dir/mnt/LinuxApps/PicoSDK/pico-sdk/lib/tinyusb/src/class/video/video_device.c.obj
 .debug_abbrev  0x0000000000000000       0x26 CMakeFiles/telitHost.dir/mnt/LinuxApps/PicoSDK/pico-sdk/lib/tinyusb/src/class/video/video_device.c.obj
 .debug_aranges
                0x0000000000000000       0x18 CMakeFiles/telitHost.dir/mnt/LinuxApps/PicoSDK/pico-sdk/lib/tinyusb/src/class/video/video_device.c.obj
 .debug_line    0x0000000000000000       0x1d CMakeFiles/telitHost.dir/mnt/LinuxApps/PicoSDK/pico-sdk/lib/tinyusb/src/class/video/video_device.c.obj
 .debug_str     0x0000000000000000      0x19e CMakeFiles/telitHost.dir/mnt/LinuxApps/PicoSDK/pico-sdk/lib/tinyusb/src/class/video/video_device.c.obj
 .comment       0x0000000000000000       0x34 CMakeFiles/telitHost.dir/mnt/LinuxApps/PicoSDK/pico-sdk/lib/tinyusb/src/class/video/video_device.c.obj
 .ARM.attributes
                0x0000000000000000       0x32 CMakeFiles/telitHost.dir/mnt/LinuxApps/PicoSDK/pico-sdk/lib/tinyusb/src/class/video/video_device.c.obj
 .text          0x0000000000000000        0x0 CMakeFiles/telitHost.dir/mnt/LinuxApps/PicoSDK/pico-sdk/lib/tinyusb/src/tusb.c.obj
 .data          0x0000000000000000        0x0 CMakeFiles/telitHost.dir/mnt/LinuxApps/PicoSDK/pico-sdk/lib/tinyusb/src/tusb.c.obj
 .bss           0x0000000000000000        0x0 CMakeFiles/telitHost.dir/mnt/LinuxApps/PicoSDK/pico-sdk/lib/tinyusb/src/tusb.c.obj
 .rodata.dump_str_line.str1.4
                0x0000000000000000        0x7 CMakeFiles/telitHost.dir/mnt/LinuxApps/PicoSDK/pico-sdk/lib/tinyusb/src/tusb.c.obj
 .text.dump_str_line
                0x0000000000000000       0x40 CMakeFiles/telitHost.dir/mnt/LinuxApps/PicoSDK/pico-sdk/lib/tinyusb/src/tusb.c.obj
 .text.tu_desc_get_interface_total_len
                0x0000000000000000       0x3e CMakeFiles/telitHost.dir/mnt/LinuxApps/PicoSDK/pico-sdk/lib/tinyusb/src/tusb.c.obj
 .rodata.tu_print_mem.str1.4
                0x0000000000000000       0x15 CMakeFiles/telitHost.dir/mnt/LinuxApps/PicoSDK/pico-sdk/lib/tinyusb/src/tusb.c.obj
 .text.tu_print_mem
                0x0000000000000000       0xe0 CMakeFiles/telitHost.dir/mnt/LinuxApps/PicoSDK/pico-sdk/lib/tinyusb/src/tusb.c.obj
 .rodata.str1.4
                0x0000000000000000      0x132 CMakeFiles/telitHost.dir/mnt/LinuxApps/PicoSDK/pico-sdk/lib/tinyusb/src/tusb.c.obj
 .rodata.tusb_strerr
                0x0000000000000000       0x2c CMakeFiles/telitHost.dir/mnt/LinuxApps/PicoSDK/pico-sdk/lib/tinyusb/src/tusb.c.obj
 .text          0x0000000000000000        0x0 CMakeFiles/telitHost.dir/mnt/LinuxApps/PicoSDK/pico-sdk/lib/tinyusb/src/common/tusb_fifo.c.obj
 .data          0x0000000000000000        0x0 CMakeFiles/telitHost.dir/mnt/LinuxApps/PicoSDK/pico-sdk/lib/tinyusb/src/common/tusb_fifo.c.obj
 .bss           0x0000000000000000        0x0 CMakeFiles/telitHost.dir/mnt/LinuxApps/PicoSDK/pico-sdk/lib/tinyusb/src/common/tusb_fifo.c.obj
 .text.tu_fifo_full
                0x0000000000000000       0x24 CMakeFiles/telitHost.dir/mnt/LinuxApps/PicoSDK/pico-sdk/lib/tinyusb/src/common/tusb_fifo.c.obj
 .text.tu_fifo_overflowed
                0x0000000000000000       0x22 CMakeFiles/telitHost.dir/mnt/LinuxApps/PicoSDK/pico-sdk/lib/tinyusb/src/common/tusb_fifo.c.obj
 .text.tu_fifo_correct_read_pointer
                0x0000000000000000       0x2c CMakeFiles/telitHost.dir/mnt/LinuxApps/PicoSDK/pico-sdk/lib/tinyusb/src/common/tusb_fifo.c.obj
 .text.tu_fifo_read_n_const_addr_full_words
                0x0000000000000000        0xa CMakeFiles/telitHost.dir/mnt/LinuxApps/PicoSDK/pico-sdk/lib/tinyusb/src/common/tusb_fifo.c.obj
 .text.tu_fifo_peek
                0x0000000000000000       0x34 CMakeFiles/telitHost.dir/mnt/LinuxApps/PicoSDK/pico-sdk/lib/tinyusb/src/common/tusb_fifo.c.obj
 .text.tu_fifo_peek_n
                0x0000000000000000       0x44 CMakeFiles/telitHost.dir/mnt/LinuxApps/PicoSDK/pico-sdk/lib/tinyusb/src/common/tusb_fifo.c.obj
 .text.tu_fifo_write_n_const_addr_full_words
                0x0000000000000000        0xa CMakeFiles/telitHost.dir/mnt/LinuxApps/PicoSDK/pico-sdk/lib/tinyusb/src/common/tusb_fifo.c.obj
 .text.tu_fifo_advance_write_pointer
                0x0000000000000000       0x12 CMakeFiles/telitHost.dir/mnt/LinuxApps/PicoSDK/pico-sdk/lib/tinyusb/src/common/tusb_fifo.c.obj
 .text.tu_fifo_advance_read_pointer
                0x0000000000000000       0x12 CMakeFiles/telitHost.dir/mnt/LinuxApps/PicoSDK/pico-sdk/lib/tinyusb/src/common/tusb_fifo.c.obj
 .text.tu_fifo_get_read_info
                0x0000000000000000       0x9e CMakeFiles/telitHost.dir/mnt/LinuxApps/PicoSDK/pico-sdk/lib/tinyusb/src/common/tusb_fifo.c.obj
 .text.tu_fifo_get_write_info
                0x0000000000000000       0x7a CMakeFiles/telitHost.dir/mnt/LinuxApps/PicoSDK/pico-sdk/lib/tinyusb/src/common/tusb_fifo.c.obj
 .text          0x0000000000000000        0x0 CMakeFiles/telitHost.dir/mnt/LinuxApps/PicoSDK/pico-sdk/src/rp2_common/pico_fix/rp2040_usb_device_enumeration/rp2040_usb_device_enumeration.c.obj
 .data          0x0000000000000000        0x0 CMakeFiles/telitHost.dir/mnt/LinuxApps/PicoSDK/pico-sdk/src/rp2_common/pico_fix/rp2040_usb_device_enumeration/rp2040_usb_device_enumeration.c.obj
 .bss           0x0000000000000000        0x0 CMakeFiles/telitHost.dir/mnt/LinuxApps/PicoSDK/pico-sdk/src/rp2_common/pico_fix/rp2040_usb_device_enumeration/rp2040_usb_device_enumeration.c.obj
 .text.hw_enumeration_fix_finish
                0x0000000000000000       0x40 CMakeFiles/telitHost.dir/mnt/LinuxApps/PicoSDK/pico-sdk/src/rp2_common/pico_fix/rp2040_usb_device_enumeration/rp2040_usb_device_enumeration.c.obj
 .text.hw_enumeration_fix_force_ls_j_done
                0x0000000000000000        0xc CMakeFiles/telitHost.dir/mnt/LinuxApps/PicoSDK/pico-sdk/src/rp2_common/pico_fix/rp2040_usb_device_enumeration/rp2040_usb_device_enumeration.c.obj
 .rodata.hw_enumeration_fix_force_ls_j.str1.4
                0x0000000000000000      0x11a CMakeFiles/telitHost.dir/mnt/LinuxApps/PicoSDK/pico-sdk/src/rp2_common/pico_fix/rp2040_usb_device_enumeration/rp2040_usb_device_enumeration.c.obj
 .text.hw_enumeration_fix_force_ls_j
                0x0000000000000000      0x128 CMakeFiles/telitHost.dir/mnt/LinuxApps/PicoSDK/pico-sdk/src/rp2_common/pico_fix/rp2040_usb_device_enumeration/rp2040_usb_device_enumeration.c.obj
 .text.hw_enumeration_fix_wait_se0
                0x0000000000000000       0x8c CMakeFiles/telitHost.dir/mnt/LinuxApps/PicoSDK/pico-sdk/src/rp2_common/pico_fix/rp2040_usb_device_enumeration/rp2040_usb_device_enumeration.c.obj
 .text.hw_enumeration_fix_wait_se0_callback
                0x0000000000000000       0x24 CMakeFiles/telitHost.dir/mnt/LinuxApps/PicoSDK/pico-sdk/src/rp2_common/pico_fix/rp2040_usb_device_enumeration/rp2040_usb_device_enumeration.c.obj
 .text.rp2040_usb_device_enumeration_fix
                0x0000000000000000       0x12 CMakeFiles/telitHost.dir/mnt/LinuxApps/PicoSDK/pico-sdk/src/rp2_common/pico_fix/rp2040_usb_device_enumeration/rp2040_usb_device_enumeration.c.obj
 .bss.gpio_ctrl_prev
                0x0000000000000000        0x4 CMakeFiles/telitHost.dir/mnt/LinuxApps/PicoSDK/pico-sdk/src/rp2_common/pico_fix/rp2040_usb_device_enumeration/rp2040_usb_device_enumeration.c.obj
 .bss.pad_ctrl_prev
                0x0000000000000000        0x4 CMakeFiles/telitHost.dir/mnt/LinuxApps/PicoSDK/pico-sdk/src/rp2_common/pico_fix/rp2040_usb_device_enumeration/rp2040_usb_device_enumeration.c.obj
 .rodata.__func__.0
                0x0000000000000000       0x1e CMakeFiles/telitHost.dir/mnt/LinuxApps/PicoSDK/pico-sdk/src/rp2_common/pico_fix/rp2040_usb_device_enumeration/rp2040_usb_device_enumeration.c.obj
 .rodata.__func__.1
                0x0000000000000000       0x15 CMakeFiles/telitHost.dir/mnt/LinuxApps/PicoSDK/pico-sdk/src/rp2_common/pico_fix/rp2040_usb_device_enumeration/rp2040_usb_device_enumeration.c.obj
 .debug_info    0x0000000000000000      0xdf9 CMakeFiles/telitHost.dir/mnt/LinuxApps/PicoSDK/pico-sdk/src/rp2_common/pico_fix/rp2040_usb_device_enumeration/rp2040_usb_device_enumeration.c.obj
 .debug_abbrev  0x0000000000000000      0x3ca CMakeFiles/telitHost.dir/mnt/LinuxApps/PicoSDK/pico-sdk/src/rp2_common/pico_fix/rp2040_usb_device_enumeration/rp2040_usb_device_enumeration.c.obj
 .debug_loc     0x0000000000000000      0x519 CMakeFiles/telitHost.dir/mnt/LinuxApps/PicoSDK/pico-sdk/src/rp2_common/pico_fix/rp2040_usb_device_enumeration/rp2040_usb_device_enumeration.c.obj
 .debug_aranges
                0x0000000000000000       0x48 CMakeFiles/telitHost.dir/mnt/LinuxApps/PicoSDK/pico-sdk/src/rp2_common/pico_fix/rp2040_usb_device_enumeration/rp2040_usb_device_enumeration.c.obj
 .debug_ranges  0x0000000000000000      0x158 CMakeFiles/telitHost.dir/mnt/LinuxApps/PicoSDK/pico-sdk/src/rp2_common/pico_fix/rp2040_usb_device_enumeration/rp2040_usb_device_enumeration.c.obj
 .debug_line    0x0000000000000000      0x64a CMakeFiles/telitHost.dir/mnt/LinuxApps/PicoSDK/pico-sdk/src/rp2_common/pico_fix/rp2040_usb_device_enumeration/rp2040_usb_device_enumeration.c.obj
 .debug_str     0x0000000000000000      0x73a CMakeFiles/telitHost.dir/mnt/LinuxApps/PicoSDK/pico-sdk/src/rp2_common/pico_fix/rp2040_usb_device_enumeration/rp2040_usb_device_enumeration.c.obj
 .comment       0x0000000000000000       0x34 CMakeFiles/telitHost.dir/mnt/LinuxApps/PicoSDK/pico-sdk/src/rp2_common/pico_fix/rp2040_usb_device_enumeration/rp2040_usb_device_enumeration.c.obj
 .debug_frame   0x0000000000000000       0xa8 CMakeFiles/telitHost.dir/mnt/LinuxApps/PicoSDK/pico-sdk/src/rp2_common/pico_fix/rp2040_usb_device_enumeration/rp2040_usb_device_enumeration.c.obj
 .ARM.attributes
                0x0000000000000000       0x2c CMakeFiles/telitHost.dir/mnt/LinuxApps/PicoSDK/pico-sdk/src/rp2_common/pico_fix/rp2040_usb_device_enumeration/rp2040_usb_device_enumeration.c.obj
 .text          0x0000000000000000        0x0 CMakeFiles/telitHost.dir/mnt/LinuxApps/PicoSDK/pico-sdk/src/rp2_common/pico_unique_id/unique_id.c.obj
 .data          0x0000000000000000        0x0 CMakeFiles/telitHost.dir/mnt/LinuxApps/PicoSDK/pico-sdk/src/rp2_common/pico_unique_id/unique_id.c.obj
 .bss           0x0000000000000000        0x0 CMakeFiles/telitHost.dir/mnt/LinuxApps/PicoSDK/pico-sdk/src/rp2_common/pico_unique_id/unique_id.c.obj
 .text.pico_get_unique_board_id
                0x0000000000000000       0x10 CMakeFiles/telitHost.dir/mnt/LinuxApps/PicoSDK/pico-sdk/src/rp2_common/pico_unique_id/unique_id.c.obj
 .text          0x0000000000000000        0x0 CMakeFiles/telitHost.dir/mnt/LinuxApps/PicoSDK/pico-sdk/src/rp2_common/hardware_flash/flash.c.obj
 .data          0x0000000000000000        0x0 CMakeFiles/telitHost.dir/mnt/LinuxApps/PicoSDK/pico-sdk/src/rp2_common/hardware_flash/flash.c.obj
 .bss           0x0000000000000000        0x0 CMakeFiles/telitHost.dir/mnt/LinuxApps/PicoSDK/pico-sdk/src/rp2_common/hardware_flash/flash.c.obj
 .time_critical.flash_range_erase
                0x0000000000000000       0xb8 CMakeFiles/telitHost.dir/mnt/LinuxApps/PicoSDK/pico-sdk/src/rp2_common/hardware_flash/flash.c.obj
 .time_critical.flash_range_program
                0x0000000000000000       0xb8 CMakeFiles/telitHost.dir/mnt/LinuxApps/PicoSDK/pico-sdk/src/rp2_common/hardware_flash/flash.c.obj
 .rodata.__func__.1
                0x0000000000000000       0x14 CMakeFiles/telitHost.dir/mnt/LinuxApps/PicoSDK/pico-sdk/src/rp2_common/hardware_flash/flash.c.obj
 .rodata.__func__.2
                0x0000000000000000       0x12 CMakeFiles/telitHost.dir/mnt/LinuxApps/PicoSDK/pico-sdk/src/rp2_common/hardware_flash/flash.c.obj
 .text          0x0000000000000000        0x0 /tmp/ccNj6CkU.o
 .data          0x0000000000000000        0x0 /tmp/ccNj6CkU.o
 .bss           0x0000000000000000        0x0 /tmp/ccNj6CkU.o
 .data          0x0000000000000000        0x0 /usr/lib/gcc/arm-none-eabi/10.3.1/thumb/v6-m/nofp/libgcc.a(_dvmd_tls.o)
 .bss           0x0000000000000000        0x0 /usr/lib/gcc/arm-none-eabi/10.3.1/thumb/v6-m/nofp/libgcc.a(_dvmd_tls.o)
 .text          0x0000000000000000       0x10 /usr/lib/gcc/arm-none-eabi/10.3.1/../../../arm-none-eabi/lib/thumb/v6-m/nofp/libg.a(lib_a-atexit.o)
 .data          0x0000000000000000        0x0 /usr/lib/gcc/arm-none-eabi/10.3.1/../../../arm-none-eabi/lib/thumb/v6-m/nofp/libg.a(lib_a-atexit.o)
 .bss           0x0000000000000000        0x0 /usr/lib/gcc/arm-none-eabi/10.3.1/../../../arm-none-eabi/lib/thumb/v6-m/nofp/libg.a(lib_a-atexit.o)
 .debug_info    0x0000000000000000      0x100 /usr/lib/gcc/arm-none-eabi/10.3.1/../../../arm-none-eabi/lib/thumb/v6-m/nofp/libg.a(lib_a-atexit.o)
 .debug_abbrev  0x0000000000000000       0xb4 /usr/lib/gcc/arm-none-eabi/10.3.1/../../../arm-none-eabi/lib/thumb/v6-m/nofp/libg.a(lib_a-atexit.o)
 .debug_loc     0x0000000000000000       0x32 /usr/lib/gcc/arm-none-eabi/10.3.1/../../../arm-none-eabi/lib/thumb/v6-m/nofp/libg.a(lib_a-atexit.o)
 .debug_aranges
                0x0000000000000000       0x20 /usr/lib/gcc/arm-none-eabi/10.3.1/../../../arm-none-eabi/lib/thumb/v6-m/nofp/libg.a(lib_a-atexit.o)
 .debug_line    0x0000000000000000       0xc3 /usr/lib/gcc/arm-none-eabi/10.3.1/../../../arm-none-eabi/lib/thumb/v6-m/nofp/libg.a(lib_a-atexit.o)
 .debug_str     0x0000000000000000      0x1dd /usr/lib/gcc/arm-none-eabi/10.3.1/../../../arm-none-eabi/lib/thumb/v6-m/nofp/libg.a(lib_a-atexit.o)
 .comment       0x0000000000000000       0x34 /usr/lib/gcc/arm-none-eabi/10.3.1/../../../arm-none-eabi/lib/thumb/v6-m/nofp/libg.a(lib_a-atexit.o)
 .debug_frame   0x0000000000000000       0x28 /usr/lib/gcc/arm-none-eabi/10.3.1/../../../arm-none-eabi/lib/thumb/v6-m/nofp/libg.a(lib_a-atexit.o)
 .ARM.attributes
                0x0000000000000000       0x2c /usr/lib/gcc/arm-none-eabi/10.3.1/../../../arm-none-eabi/lib/thumb/v6-m/nofp/libg.a(lib_a-atexit.o)
 .data          0x0000000000000000        0x0 /usr/lib/gcc/arm-none-eabi/10.3.1/../../../arm-none-eabi/lib/thumb/v6-m/nofp/libg.a(lib_a-atoi.o)
 .bss           0x0000000000000000        0x0 /usr/lib/gcc/arm-none-eabi/10.3.1/../../../arm-none-eabi/lib/thumb/v6-m/nofp/libg.a(lib_a-atoi.o)
 .text          0x0000000000000000       0x18 /usr/lib/gcc/arm-none-eabi/10.3.1/../../../arm-none-eabi/lib/thumb/v6-m/nofp/libg.a(lib_a-calloc.o)
 .data          0x0000000000000000        0x0 /usr/lib/gcc/arm-none-eabi/10.3.1/../../../arm-none-eabi/lib/thumb/v6-m/nofp/libg.a(lib_a-calloc.o)
 .bss           0x0000000000000000        0x0 /usr/lib/gcc/arm-none-eabi/10.3.1/../../../arm-none-eabi/lib/thumb/v6-m/nofp/libg.a(lib_a-calloc.o)
 .debug_info    0x0000000000000000      0x96a /usr/lib/gcc/arm-none-eabi/10.3.1/../../../arm-none-eabi/lib/thumb/v6-m/nofp/libg.a(lib_a-calloc.o)
 .debug_abbrev  0x0000000000000000      0x212 /usr/lib/gcc/arm-none-eabi/10.3.1/../../../arm-none-eabi/lib/thumb/v6-m/nofp/libg.a(lib_a-calloc.o)
 .debug_loc     0x0000000000000000       0x64 /usr/lib/gcc/arm-none-eabi/10.3.1/../../../arm-none-eabi/lib/thumb/v6-m/nofp/libg.a(lib_a-calloc.o)
 .debug_aranges
                0x0000000000000000       0x20 /usr/lib/gcc/arm-none-eabi/10.3.1/../../../arm-none-eabi/lib/thumb/v6-m/nofp/libg.a(lib_a-calloc.o)
 .debug_line    0x0000000000000000      0x149 /usr/lib/gcc/arm-none-eabi/10.3.1/../../../arm-none-eabi/lib/thumb/v6-m/nofp/libg.a(lib_a-calloc.o)
 .debug_str     0x0000000000000000      0x57b /usr/lib/gcc/arm-none-eabi/10.3.1/../../../arm-none-eabi/lib/thumb/v6-m/nofp/libg.a(lib_a-calloc.o)
 .comment       0x0000000000000000       0x34 /usr/lib/gcc/arm-none-eabi/10.3.1/../../../arm-none-eabi/lib/thumb/v6-m/nofp/libg.a(lib_a-calloc.o)
 .debug_frame   0x0000000000000000       0x28 /usr/lib/gcc/arm-none-eabi/10.3.1/../../../arm-none-eabi/lib/thumb/v6-m/nofp/libg.a(lib_a-calloc.o)
 .ARM.attributes
                0x0000000000000000       0x2c /usr/lib/gcc/arm-none-eabi/10.3.1/../../../arm-none-eabi/lib/thumb/v6-m/nofp/libg.a(lib_a-calloc.o)
 .text          0x0000000000000000       0x5c /usr/lib/gcc/arm-none-eabi/10.3.1/../../../arm-none-eabi/lib/thumb/v6-m/nofp/libg.a(lib_a-callocr.o)
 .data          0x0000000000000000        0x0 /usr/lib/gcc/arm-none-eabi/10.3.1/../../../arm-none-eabi/lib/thumb/v6-m/nofp/libg.a(lib_a-callocr.o)
 .bss           0x0000000000000000        0x0 /usr/lib/gcc/arm-none-eabi/10.3.1/../../../arm-none-eabi/lib/thumb/v6-m/nofp/libg.a(lib_a-callocr.o)
 .debug_info    0x0000000000000000      0xa81 /usr/lib/gcc/arm-none-eabi/10.3.1/../../../arm-none-eabi/lib/thumb/v6-m/nofp/libg.a(lib_a-callocr.o)
 .debug_abbrev  0x0000000000000000      0x241 /usr/lib/gcc/arm-none-eabi/10.3.1/../../../arm-none-eabi/lib/thumb/v6-m/nofp/libg.a(lib_a-callocr.o)
 .debug_loc     0x0000000000000000      0x299 /usr/lib/gcc/arm-none-eabi/10.3.1/../../../arm-none-eabi/lib/thumb/v6-m/nofp/libg.a(lib_a-callocr.o)
 .debug_aranges
                0x0000000000000000       0x20 /usr/lib/gcc/arm-none-eabi/10.3.1/../../../arm-none-eabi/lib/thumb/v6-m/nofp/libg.a(lib_a-callocr.o)
 .debug_ranges  0x0000000000000000       0x40 /usr/lib/gcc/arm-none-eabi/10.3.1/../../../arm-none-eabi/lib/thumb/v6-m/nofp/libg.a(lib_a-callocr.o)
 .debug_line    0x0000000000000000      0x1d1 /usr/lib/gcc/arm-none-eabi/10.3.1/../../../arm-none-eabi/lib/thumb/v6-m/nofp/libg.a(lib_a-callocr.o)
 .debug_str     0x0000000000000000      0x5b4 /usr/lib/gcc/arm-none-eabi/10.3.1/../../../arm-none-eabi/lib/thumb/v6-m/nofp/libg.a(lib_a-callocr.o)
 .comment       0x0000000000000000       0x34 /usr/lib/gcc/arm-none-eabi/10.3.1/../../../arm-none-eabi/lib/thumb/v6-m/nofp/libg.a(lib_a-callocr.o)
 .debug_frame   0x0000000000000000       0x28 /usr/lib/gcc/arm-none-eabi/10.3.1/../../../arm-none-eabi/lib/thumb/v6-m/nofp/libg.a(lib_a-callocr.o)
 .ARM.attributes
                0x0000000000000000       0x2c /usr/lib/gcc/arm-none-eabi/10.3.1/../../../arm-none-eabi/lib/thumb/v6-m/nofp/libg.a(lib_a-callocr.o)
 .text          0x0000000000000000        0x0 /usr/lib/gcc/arm-none-eabi/10.3.1/../../../arm-none-eabi/lib/thumb/v6-m/nofp/libg.a(lib_a-ctype_.o)
 .data          0x0000000000000000        0x0 /usr/lib/gcc/arm-none-eabi/10.3.1/../../../arm-none-eabi/lib/thumb/v6-m/nofp/libg.a(lib_a-ctype_.o)
 .bss           0x0000000000000000        0x0 /usr/lib/gcc/arm-none-eabi/10.3.1/../../../arm-none-eabi/lib/thumb/v6-m/nofp/libg.a(lib_a-ctype_.o)
 .text          0x0000000000000000       0x28 /usr/lib/gcc/arm-none-eabi/10.3.1/../../../arm-none-eabi/lib/thumb/v6-m/nofp/libg.a(lib_a-fini.o)
 .data          0x0000000000000000        0x0 /usr/lib/gcc/arm-none-eabi/10.3.1/../../../arm-none-eabi/lib/thumb/v6-m/nofp/libg.a(lib_a-fini.o)
 .bss           0x0000000000000000        0x0 /usr/lib/gcc/arm-none-eabi/10.3.1/../../../arm-none-eabi/lib/thumb/v6-m/nofp/libg.a(lib_a-fini.o)
 .debug_info    0x0000000000000000      0x102 /usr/lib/gcc/arm-none-eabi/10.3.1/../../../arm-none-eabi/lib/thumb/v6-m/nofp/libg.a(lib_a-fini.o)
 .debug_abbrev  0x0000000000000000       0xcc /usr/lib/gcc/arm-none-eabi/10.3.1/../../../arm-none-eabi/lib/thumb/v6-m/nofp/libg.a(lib_a-fini.o)
 .debug_loc     0x0000000000000000       0x46 /usr/lib/gcc/arm-none-eabi/10.3.1/../../../arm-none-eabi/lib/thumb/v6-m/nofp/libg.a(lib_a-fini.o)
 .debug_aranges
                0x0000000000000000       0x20 /usr/lib/gcc/arm-none-eabi/10.3.1/../../../arm-none-eabi/lib/thumb/v6-m/nofp/libg.a(lib_a-fini.o)
 .debug_line    0x0000000000000000       0xef /usr/lib/gcc/arm-none-eabi/10.3.1/../../../arm-none-eabi/lib/thumb/v6-m/nofp/libg.a(lib_a-fini.o)
 .debug_str     0x0000000000000000      0x1d5 /usr/lib/gcc/arm-none-eabi/10.3.1/../../../arm-none-eabi/lib/thumb/v6-m/nofp/libg.a(lib_a-fini.o)
 .comment       0x0000000000000000       0x34 /usr/lib/gcc/arm-none-eabi/10.3.1/../../../arm-none-eabi/lib/thumb/v6-m/nofp/libg.a(lib_a-fini.o)
 .debug_frame   0x0000000000000000       0x2c /usr/lib/gcc/arm-none-eabi/10.3.1/../../../arm-none-eabi/lib/thumb/v6-m/nofp/libg.a(lib_a-fini.o)
 .ARM.attributes
                0x0000000000000000       0x2c /usr/lib/gcc/arm-none-eabi/10.3.1/../../../arm-none-eabi/lib/thumb/v6-m/nofp/libg.a(lib_a-fini.o)
 .text          0x0000000000000000        0x0 /usr/lib/gcc/arm-none-eabi/10.3.1/../../../arm-none-eabi/lib/thumb/v6-m/nofp/libg.a(lib_a-impure.o)
 .bss           0x0000000000000000        0x0 /usr/lib/gcc/arm-none-eabi/10.3.1/../../../arm-none-eabi/lib/thumb/v6-m/nofp/libg.a(lib_a-impure.o)
 .rodata        0x0000000000000000        0x4 /usr/lib/gcc/arm-none-eabi/10.3.1/../../../arm-none-eabi/lib/thumb/v6-m/nofp/libg.a(lib_a-impure.o)
 .text          0x0000000000000000       0x44 /usr/lib/gcc/arm-none-eabi/10.3.1/../../../arm-none-eabi/lib/thumb/v6-m/nofp/libg.a(lib_a-init.o)
 .data          0x0000000000000000        0x0 /usr/lib/gcc/arm-none-eabi/10.3.1/../../../arm-none-eabi/lib/thumb/v6-m/nofp/libg.a(lib_a-init.o)
 .bss           0x0000000000000000        0x0 /usr/lib/gcc/arm-none-eabi/10.3.1/../../../arm-none-eabi/lib/thumb/v6-m/nofp/libg.a(lib_a-init.o)
 .debug_info    0x0000000000000000      0x11a /usr/lib/gcc/arm-none-eabi/10.3.1/../../../arm-none-eabi/lib/thumb/v6-m/nofp/libg.a(lib_a-init.o)
 .debug_abbrev  0x0000000000000000       0xcc /usr/lib/gcc/arm-none-eabi/10.3.1/../../../arm-none-eabi/lib/thumb/v6-m/nofp/libg.a(lib_a-init.o)
 .debug_loc     0x0000000000000000       0x98 /usr/lib/gcc/arm-none-eabi/10.3.1/../../../arm-none-eabi/lib/thumb/v6-m/nofp/libg.a(lib_a-init.o)
 .debug_aranges
                0x0000000000000000       0x20 /usr/lib/gcc/arm-none-eabi/10.3.1/../../../arm-none-eabi/lib/thumb/v6-m/nofp/libg.a(lib_a-init.o)
 .debug_line    0x0000000000000000      0x127 /usr/lib/gcc/arm-none-eabi/10.3.1/../../../arm-none-eabi/lib/thumb/v6-m/nofp/libg.a(lib_a-init.o)
 .debug_str     0x0000000000000000      0x1ff /usr/lib/gcc/arm-none-eabi/10.3.1/../../../arm-none-eabi/lib/thumb/v6-m/nofp/libg.a(lib_a-init.o)
 .comment       0x0000000000000000       0x34 /usr/lib/gcc/arm-none-eabi/10.3.1/../../../arm-none-eabi/lib/thumb/v6-m/nofp/libg.a(lib_a-init.o)
 .debug_frame   0x0000000000000000       0x2c /usr/lib/gcc/arm-none-eabi/10.3.1/../../../arm-none-eabi/lib/thumb/v6-m/nofp/libg.a(lib_a-init.o)
 .ARM.attributes
                0x0000000000000000       0x2c /usr/lib/gcc/arm-none-eabi/10.3.1/../../../arm-none-eabi/lib/thumb/v6-m/nofp/libg.a(lib_a-init.o)
 .data          0x0000000000000000        0x0 /usr/lib/gcc/arm-none-eabi/10.3.1/../../../arm-none-eabi/lib/thumb/v6-m/nofp/libg.a(lib_a-malloc.o)
 .bss           0x0000000000000000        0x0 /usr/lib/gcc/arm-none-eabi/10.3.1/../../../arm-none-eabi/lib/thumb/v6-m/nofp/libg.a(lib_a-malloc.o)
 .data          0x0000000000000000        0x0 /usr/lib/gcc/arm-none-eabi/10.3.1/../../../arm-none-eabi/lib/thumb/v6-m/nofp/libg.a(lib_a-mlock.o)
 .bss           0x0000000000000000        0x0 /usr/lib/gcc/arm-none-eabi/10.3.1/../../../arm-none-eabi/lib/thumb/v6-m/nofp/libg.a(lib_a-mlock.o)
 .data          0x0000000000000000        0x0 /usr/lib/gcc/arm-none-eabi/10.3.1/../../../arm-none-eabi/lib/thumb/v6-m/nofp/libg.a(lib_a-sbrkr.o)
 .bss           0x0000000000000000        0x0 /usr/lib/gcc/arm-none-eabi/10.3.1/../../../arm-none-eabi/lib/thumb/v6-m/nofp/libg.a(lib_a-sbrkr.o)
 .data          0x0000000000000000        0x0 /usr/lib/gcc/arm-none-eabi/10.3.1/../../../arm-none-eabi/lib/thumb/v6-m/nofp/libg.a(lib_a-strcat.o)
 .bss           0x0000000000000000        0x0 /usr/lib/gcc/arm-none-eabi/10.3.1/../../../arm-none-eabi/lib/thumb/v6-m/nofp/libg.a(lib_a-strcat.o)
 .data          0x0000000000000000        0x0 /usr/lib/gcc/arm-none-eabi/10.3.1/../../../arm-none-eabi/lib/thumb/v6-m/nofp/libg.a(lib_a-strchr.o)
 .bss           0x0000000000000000        0x0 /usr/lib/gcc/arm-none-eabi/10.3.1/../../../arm-none-eabi/lib/thumb/v6-m/nofp/libg.a(lib_a-strchr.o)
 .data          0x0000000000000000        0x0 /usr/lib/gcc/arm-none-eabi/10.3.1/../../../arm-none-eabi/lib/thumb/v6-m/nofp/libg.a(lib_a-strcpy.o)
 .bss           0x0000000000000000        0x0 /usr/lib/gcc/arm-none-eabi/10.3.1/../../../arm-none-eabi/lib/thumb/v6-m/nofp/libg.a(lib_a-strcpy.o)
 .data          0x0000000000000000        0x0 /usr/lib/gcc/arm-none-eabi/10.3.1/../../../arm-none-eabi/lib/thumb/v6-m/nofp/libg.a(lib_a-strlen-stub.o)
 .bss           0x0000000000000000        0x0 /usr/lib/gcc/arm-none-eabi/10.3.1/../../../arm-none-eabi/lib/thumb/v6-m/nofp/libg.a(lib_a-strlen-stub.o)
 .data          0x0000000000000000        0x0 /usr/lib/gcc/arm-none-eabi/10.3.1/../../../arm-none-eabi/lib/thumb/v6-m/nofp/libg.a(lib_a-strncpy.o)
 .bss           0x0000000000000000        0x0 /usr/lib/gcc/arm-none-eabi/10.3.1/../../../arm-none-eabi/lib/thumb/v6-m/nofp/libg.a(lib_a-strncpy.o)
 .data          0x0000000000000000        0x0 /usr/lib/gcc/arm-none-eabi/10.3.1/../../../arm-none-eabi/lib/thumb/v6-m/nofp/libg.a(lib_a-strstr.o)
 .bss           0x0000000000000000        0x0 /usr/lib/gcc/arm-none-eabi/10.3.1/../../../arm-none-eabi/lib/thumb/v6-m/nofp/libg.a(lib_a-strstr.o)
 .data          0x0000000000000000        0x0 /usr/lib/gcc/arm-none-eabi/10.3.1/../../../arm-none-eabi/lib/thumb/v6-m/nofp/libg.a(lib_a-strtol.o)
 .bss           0x0000000000000000        0x0 /usr/lib/gcc/arm-none-eabi/10.3.1/../../../arm-none-eabi/lib/thumb/v6-m/nofp/libg.a(lib_a-strtol.o)
 .text          0x0000000000000000       0x88 /usr/lib/gcc/arm-none-eabi/10.3.1/../../../arm-none-eabi/lib/thumb/v6-m/nofp/libg.a(lib_a-__atexit.o)
 .data          0x0000000000000000        0x0 /usr/lib/gcc/arm-none-eabi/10.3.1/../../../arm-none-eabi/lib/thumb/v6-m/nofp/libg.a(lib_a-__atexit.o)
 .bss           0x0000000000000000        0x0 /usr/lib/gcc/arm-none-eabi/10.3.1/../../../arm-none-eabi/lib/thumb/v6-m/nofp/libg.a(lib_a-__atexit.o)
 .debug_info    0x0000000000000000      0x9b0 /usr/lib/gcc/arm-none-eabi/10.3.1/../../../arm-none-eabi/lib/thumb/v6-m/nofp/libg.a(lib_a-__atexit.o)
 .debug_abbrev  0x0000000000000000      0x23f /usr/lib/gcc/arm-none-eabi/10.3.1/../../../arm-none-eabi/lib/thumb/v6-m/nofp/libg.a(lib_a-__atexit.o)
 .debug_loc     0x0000000000000000      0x164 /usr/lib/gcc/arm-none-eabi/10.3.1/../../../arm-none-eabi/lib/thumb/v6-m/nofp/libg.a(lib_a-__atexit.o)
 .debug_aranges
                0x0000000000000000       0x20 /usr/lib/gcc/arm-none-eabi/10.3.1/../../../arm-none-eabi/lib/thumb/v6-m/nofp/libg.a(lib_a-__atexit.o)
 .debug_line    0x0000000000000000      0x1b8 /usr/lib/gcc/arm-none-eabi/10.3.1/../../../arm-none-eabi/lib/thumb/v6-m/nofp/libg.a(lib_a-__atexit.o)
 .debug_str     0x0000000000000000      0x5b5 /usr/lib/gcc/arm-none-eabi/10.3.1/../../../arm-none-eabi/lib/thumb/v6-m/nofp/libg.a(lib_a-__atexit.o)
 .comment       0x0000000000000000       0x34 /usr/lib/gcc/arm-none-eabi/10.3.1/../../../arm-none-eabi/lib/thumb/v6-m/nofp/libg.a(lib_a-__atexit.o)
 .debug_frame   0x0000000000000000       0x38 /usr/lib/gcc/arm-none-eabi/10.3.1/../../../arm-none-eabi/lib/thumb/v6-m/nofp/libg.a(lib_a-__atexit.o)
 .ARM.attributes
                0x0000000000000000       0x2c /usr/lib/gcc/arm-none-eabi/10.3.1/../../../arm-none-eabi/lib/thumb/v6-m/nofp/libg.a(lib_a-__atexit.o)
 .data          0x0000000000000000        0x0 /usr/lib/gcc/arm-none-eabi/10.3.1/../../../arm-none-eabi/lib/thumb/v6-m/nofp/libg.a(lib_a-errno.o)
 .bss           0x0000000000000000        0x0 /usr/lib/gcc/arm-none-eabi/10.3.1/../../../arm-none-eabi/lib/thumb/v6-m/nofp/libg.a(lib_a-errno.o)
 .data          0x0000000000000000        0x0 /usr/lib/gcc/arm-none-eabi/10.3.1/../../../arm-none-eabi/lib/thumb/v6-m/nofp/libg.a(lib_a-freer.o)
 .bss           0x0000000000000000        0x0 /usr/lib/gcc/arm-none-eabi/10.3.1/../../../arm-none-eabi/lib/thumb/v6-m/nofp/libg.a(lib_a-freer.o)
 .data          0x0000000000000000        0x0 /usr/lib/gcc/arm-none-eabi/10.3.1/../../../arm-none-eabi/lib/thumb/v6-m/nofp/libg.a(lib_a-memcmp.o)
 .bss           0x0000000000000000        0x0 /usr/lib/gcc/arm-none-eabi/10.3.1/../../../arm-none-eabi/lib/thumb/v6-m/nofp/libg.a(lib_a-memcmp.o)
 .text          0x0000000000000000       0xf0 /usr/lib/gcc/arm-none-eabi/10.3.1/../../../arm-none-eabi/lib/thumb/v6-m/nofp/libg.a(lib_a-reent.o)
 .data          0x0000000000000000        0x0 /usr/lib/gcc/arm-none-eabi/10.3.1/../../../arm-none-eabi/lib/thumb/v6-m/nofp/libg.a(lib_a-reent.o)
 .data          0x0000000000000000        0x0 /usr/lib/gcc/arm-none-eabi/10.3.1/../../../arm-none-eabi/lib/thumb/v6-m/nofp/libg.a(lib_a-strnlen.o)
 .bss           0x0000000000000000        0x0 /usr/lib/gcc/arm-none-eabi/10.3.1/../../../arm-none-eabi/lib/thumb/v6-m/nofp/libg.a(lib_a-strnlen.o)
 .text          0x0000000000000000        0x0 /usr/lib/gcc/arm-none-eabi/10.3.1/thumb/v6-m/nofp/crtend.o
 .data          0x0000000000000000        0x0 /usr/lib/gcc/arm-none-eabi/10.3.1/thumb/v6-m/nofp/crtend.o
 .bss           0x0000000000000000        0x0 /usr/lib/gcc/arm-none-eabi/10.3.1/thumb/v6-m/nofp/crtend.o
 .rodata        0x0000000000000000       0x24 /usr/lib/gcc/arm-none-eabi/10.3.1/thumb/v6-m/nofp/crtend.o
 .eh_frame      0x0000000000000000        0x4 /usr/lib/gcc/arm-none-eabi/10.3.1/thumb/v6-m/nofp/crtend.o
 .text          0x0000000000000000        0x0 /usr/lib/gcc/arm-none-eabi/10.3.1/thumb/v6-m/nofp/crtn.o
 .data          0x0000000000000000        0x0 /usr/lib/gcc/arm-none-eabi/10.3.1/thumb/v6-m/nofp/crtn.o
 .bss           0x0000000000000000        0x0 /usr/lib/gcc/arm-none-eabi/10.3.1/thumb/v6-m/nofp/crtn.o
 .init          0x0000000000000000        0x8 /usr/lib/gcc/arm-none-eabi/10.3.1/thumb/v6-m/nofp/crtn.o
 .fini          0x0000000000000000        0x8 /usr/lib/gcc/arm-none-eabi/10.3.1/thumb/v6-m/nofp/crtn.o
 .ARM.attributes
                0x0000000000000000       0x1e /usr/lib/gcc/arm-none-eabi/10.3.1/thumb/v6-m/nofp/crtn.o

Memory Configuration

Name             Origin             Length             Attributes
FLASH            0x0000000010000000 0x0000000000200000 xr
RAM              0x0000000020000000 0x0000000000040000 xrw
SCRATCH_X        0x0000000020040000 0x0000000000001000 xrw
SCRATCH_Y        0x0000000020041000 0x0000000000001000 xrw
*default*        0x0000000000000000 0xffffffffffffffff

Linker script and memory map

LOAD /usr/lib/gcc/arm-none-eabi/10.3.1/thumb/v6-m/nofp/crti.o
LOAD /usr/lib/gcc/arm-none-eabi/10.3.1/thumb/v6-m/nofp/crtbegin.o
LOAD /usr/lib/gcc/arm-none-eabi/10.3.1/../../../arm-none-eabi/lib/thumb/v6-m/nofp/crt0.o

.flash_begin    0x0000000010000000        0x0
                0x0000000010000000                __flash_binary_start = .

.boot2          0x0000000010000000      0x100
                0x0000000010000000                __boot2_start__ = .
 *(.boot2)
 .boot2         0x0000000010000000      0x100 /tmp/ccNj6CkU.o
                0x0000000010000100                __boot2_end__ = .
                0x0000000000000001                ASSERT (((__boot2_end__ - __boot2_start__) == 0x100), ERROR: Pico second stage bootloader must be 256 bytes in size)

.text           0x0000000010000100     0x99b0
                0x0000000010000100                __logical_binary_start = .
 *(.vectors)
 .vectors       0x0000000010000100       0xd4 CMakeFiles/telitHost.dir/mnt/LinuxApps/PicoSDK/pico-sdk/src/rp2_common/pico_standard_link/crt0.S.obj
                0x0000000010000100                __vectors
                0x0000000010000100                __VECTOR_TABLE
                0x00000000100001c0                isr_invalid
                0x00000000100001c0                __default_isrs_start
                0x00000000100001c2                isr_nmi
                0x00000000100001c4                isr_hardfault
                0x00000000100001c6                isr_svcall
                0x00000000100001c8                isr_pendsv
                0x00000000100001ca                isr_systick
                0x00000000100001cc                isr_irq30
                0x00000000100001cc                __unhandled_user_irq
                0x00000000100001cc                isr_irq13
                0x00000000100001cc                isr_irq27
                0x00000000100001cc                isr_irq31
                0x00000000100001cc                isr_irq5
                0x00000000100001cc                isr_irq11
                0x00000000100001cc                isr_irq23
                0x00000000100001cc                isr_irq18
                0x00000000100001cc                isr_irq28
                0x00000000100001cc                isr_irq19
                0x00000000100001cc                isr_irq0
                0x00000000100001cc                isr_irq6
                0x00000000100001cc                isr_irq22
                0x00000000100001cc                isr_irq17
                0x00000000100001cc                isr_irq14
                0x00000000100001cc                isr_irq2
                0x00000000100001cc                isr_irq10
                0x00000000100001cc                isr_irq8
                0x00000000100001cc                isr_irq24
                0x00000000100001cc                isr_irq1
                0x00000000100001cc                isr_irq7
                0x00000000100001cc                isr_irq21
                0x00000000100001cc                isr_irq20
                0x00000000100001cc                isr_irq15
                0x00000000100001cc                isr_irq25
                0x00000000100001cc                isr_irq4
                0x00000000100001cc                isr_irq16
                0x00000000100001cc                isr_irq29
                0x00000000100001cc                isr_irq26
                0x00000000100001cc                __default_isrs_end
                0x00000000100001cc                isr_irq3
                0x00000000100001cc                isr_irq12
                0x00000000100001cc                isr_irq9
                0x00000000100001d2                unhandled_user_irq_num_in_r0
 *(.binary_info_header)
 .binary_info_header
                0x00000000100001d4       0x14 CMakeFiles/telitHost.dir/mnt/LinuxApps/PicoSDK/pico-sdk/src/rp2_common/pico_standard_link/crt0.S.obj
                0x00000000100001e8                __binary_info_header_end = .
 *(.reset)
 .reset         0x00000000100001e8       0xa8 CMakeFiles/telitHost.dir/mnt/LinuxApps/PicoSDK/pico-sdk/src/rp2_common/pico_standard_link/crt0.S.obj
                0x00000000100001e8                _entry_point
                0x0000000010000266                __get_current_exception
 .reset         0x0000000010000290       0x30 CMakeFiles/telitHost.dir/mnt/LinuxApps/PicoSDK/pico-sdk/src/rp2_common/pico_standard_link/binary_info.c.obj
 *(.init)
 .init          0x00000000100002c0        0x4 /usr/lib/gcc/arm-none-eabi/10.3.1/thumb/v6-m/nofp/crti.o
                0x00000000100002c0                _init
 *(EXCLUDE_FILE(*libm.a: *libc.a:*lib_a-mem*.o *libgcc.a:) .text*)
 .text          0x00000000100002c4       0x98 /usr/lib/gcc/arm-none-eabi/10.3.1/thumb/v6-m/nofp/crtbegin.o
 .text.gpio_interrupt_handler
                0x000000001000035c       0x40 CMakeFiles/telitHost.dir/telitHost.c.obj
                0x000000001000035c                gpio_interrupt_handler
 .text.on_uart0_rx
                0x000000001000039c       0x90 CMakeFiles/telitHost.dir/telitHost.c.obj
                0x000000001000039c                on_uart0_rx
 .text.create_message
                0x000000001000042c       0x54 CMakeFiles/telitHost.dir/telitHost.c.obj
                0x000000001000042c                create_message
 .text.send_message_to_telit
                0x0000000010000480       0x88 CMakeFiles/telitHost.dir/telitHost.c.obj
                0x0000000010000480                send_message_to_telit
 .text.mqtt_new_message_count
                0x0000000010000508       0xc0 CMakeFiles/telitHost.dir/telitHost.c.obj
                0x0000000010000508                mqtt_new_message_count
 .text.mqtt_read_in_queue
                0x00000000100005c8      0x130 CMakeFiles/telitHost.dir/telitHost.c.obj
                0x00000000100005c8                mqtt_read_in_queue
 .text.mqtt_logout
                0x00000000100006f8       0xa4 CMakeFiles/telitHost.dir/telitHost.c.obj
                0x00000000100006f8                mqtt_logout
 .text.mqtt_enable_and_configure
                0x000000001000079c      0x264 CMakeFiles/telitHost.dir/telitHost.c.obj
                0x000000001000079c                mqtt_enable_and_configure
 .text.mqtt_login
                0x0000000010000a00      0x1b8 CMakeFiles/telitHost.dir/telitHost.c.obj
                0x0000000010000a00                mqtt_login
 .text.mqtt_subscribe_topic
                0x0000000010000bb8      0x110 CMakeFiles/telitHost.dir/telitHost.c.obj
                0x0000000010000bb8                mqtt_subscribe_topic
 .text.mqtt_publish
                0x0000000010000cc8      0x154 CMakeFiles/telitHost.dir/telitHost.c.obj
                0x0000000010000cc8                mqtt_publish
 .text.activate_pdp
                0x0000000010000e1c      0x1b4 CMakeFiles/telitHost.dir/telitHost.c.obj
                0x0000000010000e1c                activate_pdp
 .text.define_apn
                0x0000000010000fd0       0xac CMakeFiles/telitHost.dir/telitHost.c.obj
                0x0000000010000fd0                define_apn
 .text.check_gprs_registration
                0x000000001000107c       0xfc CMakeFiles/telitHost.dir/telitHost.c.obj
                0x000000001000107c                check_gprs_registration
 .text.process_gprs_registration
                0x0000000010001178       0x64 CMakeFiles/telitHost.dir/telitHost.c.obj
                0x0000000010001178                process_gprs_registration
 .text.check_gprs_attach
                0x00000000100011dc      0x100 CMakeFiles/telitHost.dir/telitHost.c.obj
                0x00000000100011dc                check_gprs_attach
 .text.process_gprs_attach
                0x00000000100012dc       0x38 CMakeFiles/telitHost.dir/telitHost.c.obj
                0x00000000100012dc                process_gprs_attach
 .text.check_carrier_registration
                0x0000000010001314       0xf4 CMakeFiles/telitHost.dir/telitHost.c.obj
                0x0000000010001314                check_carrier_registration
 .text.check_signal_quality
                0x0000000010001408       0xf0 CMakeFiles/telitHost.dir/telitHost.c.obj
                0x0000000010001408                check_signal_quality
 .text.set_gpios
                0x00000000100014f8       0x2c CMakeFiles/telitHost.dir/telitHost.c.obj
                0x00000000100014f8                set_gpios
 .text.set_telit_uart_ready
                0x0000000010001524       0x80 CMakeFiles/telitHost.dir/telitHost.c.obj
                0x0000000010001524                set_telit_uart_ready
 .text.reboot_pico
                0x00000000100015a4       0x10 CMakeFiles/telitHost.dir/telitHost.c.obj
                0x00000000100015a4                reboot_pico
 .text.process_mqtt_enable
                0x00000000100015b4       0x80 CMakeFiles/telitHost.dir/telitHost.c.obj
                0x00000000100015b4                process_mqtt_enable
 .text.process_mqtt_login
                0x0000000010001634       0x70 CMakeFiles/telitHost.dir/telitHost.c.obj
                0x0000000010001634                process_mqtt_login
 .text.process_carrier_registration
                0x00000000100016a4       0x84 CMakeFiles/telitHost.dir/telitHost.c.obj
                0x00000000100016a4                process_carrier_registration
 .text.process_signal_quailty
                0x0000000010001728       0x70 CMakeFiles/telitHost.dir/telitHost.c.obj
                0x0000000010001728                process_signal_quailty
 .text.telit_init_3g
                0x0000000010001798       0x70 CMakeFiles/telitHost.dir/telitHost.c.obj
                0x0000000010001798                telit_init_3g
 .text.main     0x0000000010001808      0x234 CMakeFiles/telitHost.dir/telitHost.c.obj
                0x0000000010001808                main
 .text.gpio_set_function
                0x0000000010001a3c       0x30 CMakeFiles/telitHost.dir/mnt/LinuxApps/PicoSDK/pico-sdk/src/rp2_common/hardware_gpio/gpio.c.obj
                0x0000000010001a3c                gpio_set_function
 .text.gpio_set_pulls
                0x0000000010001a6c       0x34 CMakeFiles/telitHost.dir/mnt/LinuxApps/PicoSDK/pico-sdk/src/rp2_common/hardware_gpio/gpio.c.obj
                0x0000000010001a6c                gpio_set_pulls
 .text.gpio_acknowledge_irq
                0x0000000010001aa0       0x18 CMakeFiles/telitHost.dir/mnt/LinuxApps/PicoSDK/pico-sdk/src/rp2_common/hardware_gpio/gpio.c.obj
                0x0000000010001aa0                gpio_acknowledge_irq
 .text._gpio_set_irq_enabled
                0x0000000010001ab8       0x34 CMakeFiles/telitHost.dir/mnt/LinuxApps/PicoSDK/pico-sdk/src/rp2_common/hardware_gpio/gpio.c.obj
 .text.gpio_set_irq_enabled
                0x0000000010001aec       0x20 CMakeFiles/telitHost.dir/mnt/LinuxApps/PicoSDK/pico-sdk/src/rp2_common/hardware_gpio/gpio.c.obj
                0x0000000010001aec                gpio_set_irq_enabled
 .text.gpio_set_irq_enabled_with_callback
                0x0000000010001b0c       0x30 CMakeFiles/telitHost.dir/mnt/LinuxApps/PicoSDK/pico-sdk/src/rp2_common/hardware_gpio/gpio.c.obj
                0x0000000010001b0c                gpio_set_irq_enabled_with_callback
 .text.gpio_irq_handler
                0x0000000010001b3c       0x68 CMakeFiles/telitHost.dir/mnt/LinuxApps/PicoSDK/pico-sdk/src/rp2_common/hardware_gpio/gpio.c.obj
 .text.gpio_init
                0x0000000010001ba4       0x16 CMakeFiles/telitHost.dir/mnt/LinuxApps/PicoSDK/pico-sdk/src/rp2_common/hardware_gpio/gpio.c.obj
                0x0000000010001ba4                gpio_init
 *fill*         0x0000000010001bba        0x2 
 .text.hw_claim_lock
                0x0000000010001bbc       0x18 CMakeFiles/telitHost.dir/mnt/LinuxApps/PicoSDK/pico-sdk/src/rp2_common/hardware_claim/claim.c.obj
                0x0000000010001bbc                hw_claim_lock
 .text.hw_claim_unlock
                0x0000000010001bd4       0x14 CMakeFiles/telitHost.dir/mnt/LinuxApps/PicoSDK/pico-sdk/src/rp2_common/hardware_claim/claim.c.obj
                0x0000000010001bd4                hw_claim_unlock
 .text.hw_claim_or_assert
                0x0000000010001be8       0x32 CMakeFiles/telitHost.dir/mnt/LinuxApps/PicoSDK/pico-sdk/src/rp2_common/hardware_claim/claim.c.obj
                0x0000000010001be8                hw_claim_or_assert
 .text.hw_claim_unused_from_range
                0x0000000010001c1a       0x50 CMakeFiles/telitHost.dir/mnt/LinuxApps/PicoSDK/pico-sdk/src/rp2_common/hardware_claim/claim.c.obj
                0x0000000010001c1a                hw_claim_unused_from_range
 *fill*         0x0000000010001c6a        0x2 
 .text.running_on_fpga
                0x0000000010001c6c       0x14 CMakeFiles/telitHost.dir/mnt/LinuxApps/PicoSDK/pico-sdk/src/rp2_common/pico_platform/platform.c.obj
                0x0000000010001c6c                running_on_fpga
 .text.spin_locks_reset
                0x0000000010001c80       0x20 CMakeFiles/telitHost.dir/mnt/LinuxApps/PicoSDK/pico-sdk/src/rp2_common/hardware_sync/sync.c.obj
                0x0000000010001c80                spin_locks_reset
 .text.next_striped_spin_lock_num
                0x0000000010001ca0       0x1c CMakeFiles/telitHost.dir/mnt/LinuxApps/PicoSDK/pico-sdk/src/rp2_common/hardware_sync/sync.c.obj
                0x0000000010001ca0                next_striped_spin_lock_num
 .text.spin_lock_claim_unused
                0x0000000010001cbc       0x20 CMakeFiles/telitHost.dir/mnt/LinuxApps/PicoSDK/pico-sdk/src/rp2_common/hardware_sync/sync.c.obj
                0x0000000010001cbc                spin_lock_claim_unused
 .text.uart_set_baudrate
                0x0000000010001cdc       0x5c CMakeFiles/telitHost.dir/mnt/LinuxApps/PicoSDK/pico-sdk/src/rp2_common/hardware_uart/uart.c.obj
                0x0000000010001cdc                uart_set_baudrate
 .text.uart_set_translate_crlf
                0x0000000010001d38       0x28 CMakeFiles/telitHost.dir/mnt/LinuxApps/PicoSDK/pico-sdk/src/rp2_common/hardware_uart/uart.c.obj
                0x0000000010001d38                uart_set_translate_crlf
 .text.uart_init
                0x0000000010001d60       0x80 CMakeFiles/telitHost.dir/mnt/LinuxApps/PicoSDK/pico-sdk/src/rp2_common/hardware_uart/uart.c.obj
                0x0000000010001d60                uart_init
 .text.alarm_pool_post_alloc_init
                0x0000000010001de0       0x40 CMakeFiles/telitHost.dir/mnt/LinuxApps/PicoSDK/pico-sdk/src/common/pico_time/time.c.obj
 .text.sleep_until_callback
                0x0000000010001e20       0x30 CMakeFiles/telitHost.dir/mnt/LinuxApps/PicoSDK/pico-sdk/src/common/pico_time/time.c.obj
 .text.timer_pool_entry_comparator
                0x0000000010001e50       0x7c CMakeFiles/telitHost.dir/mnt/LinuxApps/PicoSDK/pico-sdk/src/common/pico_time/time.c.obj
                0x0000000010001e50                timer_pool_entry_comparator
 .text.ph_add_child_node
                0x0000000010001ecc       0xa4 CMakeFiles/telitHost.dir/mnt/LinuxApps/PicoSDK/pico-sdk/src/common/pico_time/time.c.obj
 .text.ph_merge_nodes
                0x0000000010001f70       0x3e CMakeFiles/telitHost.dir/mnt/LinuxApps/PicoSDK/pico-sdk/src/common/pico_time/time.c.obj
 *fill*         0x0000000010001fae        0x2 
 .text.add_alarm_under_lock
                0x0000000010001fb0      0x174 CMakeFiles/telitHost.dir/mnt/LinuxApps/PicoSDK/pico-sdk/src/common/pico_time/time.c.obj
 .text.alarm_pool_alarm_callback
                0x0000000010002124      0x328 CMakeFiles/telitHost.dir/mnt/LinuxApps/PicoSDK/pico-sdk/src/common/pico_time/time.c.obj
 .text.alarm_pool_init_default
                0x000000001000244c       0x38 CMakeFiles/telitHost.dir/mnt/LinuxApps/PicoSDK/pico-sdk/src/common/pico_time/time.c.obj
                0x000000001000244c                alarm_pool_init_default
 .text.alarm_pool_get_default
                0x0000000010002484       0x2c CMakeFiles/telitHost.dir/mnt/LinuxApps/PicoSDK/pico-sdk/src/common/pico_time/time.c.obj
                0x0000000010002484                alarm_pool_get_default
 .text.alarm_pool_add_alarm_at
                0x00000000100024b0      0x170 CMakeFiles/telitHost.dir/mnt/LinuxApps/PicoSDK/pico-sdk/src/common/pico_time/time.c.obj
                0x00000000100024b0                alarm_pool_add_alarm_at
 .text.alarm_pool_cancel_alarm
                0x0000000010002620       0xf0 CMakeFiles/telitHost.dir/mnt/LinuxApps/PicoSDK/pico-sdk/src/common/pico_time/time.c.obj
                0x0000000010002620                alarm_pool_cancel_alarm
 .text.sleep_until
                0x0000000010002710       0xfc CMakeFiles/telitHost.dir/mnt/LinuxApps/PicoSDK/pico-sdk/src/common/pico_time/time.c.obj
                0x0000000010002710                sleep_until
 .text.sleep_us
                0x000000001000280c       0x58 CMakeFiles/telitHost.dir/mnt/LinuxApps/PicoSDK/pico-sdk/src/common/pico_time/time.c.obj
                0x000000001000280c                sleep_us
 .text.sleep_ms
                0x0000000010002864       0x14 CMakeFiles/telitHost.dir/mnt/LinuxApps/PicoSDK/pico-sdk/src/common/pico_time/time.c.obj
                0x0000000010002864                sleep_ms
 .text.best_effort_wfe_or_timeout
                0x0000000010002878       0x80 CMakeFiles/telitHost.dir/mnt/LinuxApps/PicoSDK/pico-sdk/src/common/pico_time/time.c.obj
                0x0000000010002878                best_effort_wfe_or_timeout
 .text.hardware_alarm_irq_handler
                0x00000000100028f8       0x8c CMakeFiles/telitHost.dir/mnt/LinuxApps/PicoSDK/pico-sdk/src/rp2_common/hardware_timer/timer.c.obj
 .text.hardware_alarm_claim
                0x0000000010002984       0x18 CMakeFiles/telitHost.dir/mnt/LinuxApps/PicoSDK/pico-sdk/src/rp2_common/hardware_timer/timer.c.obj
                0x0000000010002984                hardware_alarm_claim
 .text.time_us_64
                0x000000001000299c       0x18 CMakeFiles/telitHost.dir/mnt/LinuxApps/PicoSDK/pico-sdk/src/rp2_common/hardware_timer/timer.c.obj
                0x000000001000299c                time_us_64
 .text.busy_wait_until
                0x00000000100029b4       0x28 CMakeFiles/telitHost.dir/mnt/LinuxApps/PicoSDK/pico-sdk/src/rp2_common/hardware_timer/timer.c.obj
                0x00000000100029b4                busy_wait_until
 .text.busy_wait_us
                0x00000000100029dc       0x48 CMakeFiles/telitHost.dir/mnt/LinuxApps/PicoSDK/pico-sdk/src/rp2_common/hardware_timer/timer.c.obj
                0x00000000100029dc                busy_wait_us
 .text.hardware_alarm_set_callback
                0x0000000010002a24       0x90 CMakeFiles/telitHost.dir/mnt/LinuxApps/PicoSDK/pico-sdk/src/rp2_common/hardware_timer/timer.c.obj
                0x0000000010002a24                hardware_alarm_set_callback
 .text.hardware_alarm_set_target
                0x0000000010002ab4       0xe8 CMakeFiles/telitHost.dir/mnt/LinuxApps/PicoSDK/pico-sdk/src/rp2_common/hardware_timer/timer.c.obj
                0x0000000010002ab4                hardware_alarm_set_target
 .text.hardware_alarm_cancel
                0x0000000010002b9c       0x40 CMakeFiles/telitHost.dir/mnt/LinuxApps/PicoSDK/pico-sdk/src/rp2_common/hardware_timer/timer.c.obj
                0x0000000010002b9c                hardware_alarm_cancel
 .text.lock_init
                0x0000000010002bdc       0x10 CMakeFiles/telitHost.dir/mnt/LinuxApps/PicoSDK/pico-sdk/src/common/pico_sync/lock_core.c.obj
                0x0000000010002bdc                lock_init
 .text.mutex_init
                0x0000000010002bec       0x1a CMakeFiles/telitHost.dir/mnt/LinuxApps/PicoSDK/pico-sdk/src/common/pico_sync/mutex.c.obj
                0x0000000010002bec                mutex_init
 .text.recursive_mutex_init
                0x0000000010002c06       0x1e CMakeFiles/telitHost.dir/mnt/LinuxApps/PicoSDK/pico-sdk/src/common/pico_sync/mutex.c.obj
                0x0000000010002c06                recursive_mutex_init
 .text.critical_section_init_with_lock_num
                0x0000000010002c24       0x14 CMakeFiles/telitHost.dir/mnt/LinuxApps/PicoSDK/pico-sdk/src/common/pico_sync/critical_section.c.obj
                0x0000000010002c24                critical_section_init_with_lock_num
 .text.critical_section_init
                0x0000000010002c38       0x14 CMakeFiles/telitHost.dir/mnt/LinuxApps/PicoSDK/pico-sdk/src/common/pico_sync/critical_section.c.obj
                0x0000000010002c38                critical_section_init
 .text.ph_add_child_node
                0x0000000010002c4c       0xa4 CMakeFiles/telitHost.dir/mnt/LinuxApps/PicoSDK/pico-sdk/src/common/pico_util/pheap.c.obj
 .text.ph_merge_nodes
                0x0000000010002cf0       0x3e CMakeFiles/telitHost.dir/mnt/LinuxApps/PicoSDK/pico-sdk/src/common/pico_util/pheap.c.obj
 *fill*         0x0000000010002d2e        0x2 
 .text.ph_clear
                0x0000000010002d30       0x70 CMakeFiles/telitHost.dir/mnt/LinuxApps/PicoSDK/pico-sdk/src/common/pico_util/pheap.c.obj
                0x0000000010002d30                ph_clear
 .text.ph_post_alloc_init
                0x0000000010002da0        0xe CMakeFiles/telitHost.dir/mnt/LinuxApps/PicoSDK/pico-sdk/src/common/pico_util/pheap.c.obj
                0x0000000010002da0                ph_post_alloc_init
 *fill*         0x0000000010002dae        0x2 
 .text.ph_merge_two_pass
                0x0000000010002db0       0xa8 CMakeFiles/telitHost.dir/mnt/LinuxApps/PicoSDK/pico-sdk/src/common/pico_util/pheap.c.obj
                0x0000000010002db0                ph_merge_two_pass
 .text.ph_remove_any_head
                0x0000000010002e58      0x108 CMakeFiles/telitHost.dir/mnt/LinuxApps/PicoSDK/pico-sdk/src/common/pico_util/pheap.c.obj
 .text.ph_remove_head
                0x0000000010002f60       0x14 CMakeFiles/telitHost.dir/mnt/LinuxApps/PicoSDK/pico-sdk/src/common/pico_util/pheap.c.obj
                0x0000000010002f60                ph_remove_head
 .text.ph_remove_and_free_node
                0x0000000010002f74       0xf8 CMakeFiles/telitHost.dir/mnt/LinuxApps/PicoSDK/pico-sdk/src/common/pico_util/pheap.c.obj
                0x0000000010002f74                ph_remove_and_free_node
 .text._exit    0x000000001000306c        0x4 CMakeFiles/telitHost.dir/mnt/LinuxApps/PicoSDK/pico-sdk/src/rp2_common/pico_runtime/runtime.c.obj
                0x000000001000306c                _exit
 .text._sbrk    0x0000000010003070       0x38 CMakeFiles/telitHost.dir/mnt/LinuxApps/PicoSDK/pico-sdk/src/rp2_common/pico_runtime/runtime.c.obj
                0x0000000010003070                _sbrk
 .text.exit     0x00000000100030a8        0x6 CMakeFiles/telitHost.dir/mnt/LinuxApps/PicoSDK/pico-sdk/src/rp2_common/pico_runtime/runtime.c.obj
                0x00000000100030a8                exit
 *fill*         0x00000000100030ae        0x2 
 .text.__assert_func
                0x00000000100030b0       0x3c CMakeFiles/telitHost.dir/mnt/LinuxApps/PicoSDK/pico-sdk/src/rp2_common/pico_runtime/runtime.c.obj
                0x00000000100030b0                __assert_func
 .text.runtime_init
                0x00000000100030ec       0xf8 CMakeFiles/telitHost.dir/mnt/LinuxApps/PicoSDK/pico-sdk/src/rp2_common/pico_runtime/runtime.c.obj
                0x00000000100030ec                runtime_init
 .text.panic    0x00000000100031e4       0x30 CMakeFiles/telitHost.dir/mnt/LinuxApps/PicoSDK/pico-sdk/src/rp2_common/pico_runtime/runtime.c.obj
                0x00000000100031e4                panic
 .text.clock_configure
                0x0000000010003214      0x104 CMakeFiles/telitHost.dir/mnt/LinuxApps/PicoSDK/pico-sdk/src/rp2_common/hardware_clocks/clocks.c.obj
                0x0000000010003214                clock_configure
 .text.clocks_init
                0x0000000010003318      0x100 CMakeFiles/telitHost.dir/mnt/LinuxApps/PicoSDK/pico-sdk/src/rp2_common/hardware_clocks/clocks.c.obj
                0x0000000010003318                clocks_init
 .text.clock_get_hz
                0x0000000010003418        0xc CMakeFiles/telitHost.dir/mnt/LinuxApps/PicoSDK/pico-sdk/src/rp2_common/hardware_clocks/clocks.c.obj
                0x0000000010003418                clock_get_hz
 .text.set_raw_irq_handler_and_unlock
                0x0000000010003424       0x28 CMakeFiles/telitHost.dir/mnt/LinuxApps/PicoSDK/pico-sdk/src/rp2_common/hardware_irq/irq.c.obj
 .text.make_branch
                0x000000001000344c       0x34 CMakeFiles/telitHost.dir/mnt/LinuxApps/PicoSDK/pico-sdk/src/rp2_common/hardware_irq/irq.c.obj
 .text.insert_branch_and_link
                0x0000000010003480       0x40 CMakeFiles/telitHost.dir/mnt/LinuxApps/PicoSDK/pico-sdk/src/rp2_common/hardware_irq/irq.c.obj
 .text.irq_is_enabled
                0x00000000100034c0       0x18 CMakeFiles/telitHost.dir/mnt/LinuxApps/PicoSDK/pico-sdk/src/rp2_common/hardware_irq/irq.c.obj
                0x00000000100034c0                irq_is_enabled
 .text.irq_set_mask_enabled
                0x00000000100034d8       0x20 CMakeFiles/telitHost.dir/mnt/LinuxApps/PicoSDK/pico-sdk/src/rp2_common/hardware_irq/irq.c.obj
                0x00000000100034d8                irq_set_mask_enabled
 .text.irq_set_enabled
                0x00000000100034f8        0xe CMakeFiles/telitHost.dir/mnt/LinuxApps/PicoSDK/pico-sdk/src/rp2_common/hardware_irq/irq.c.obj
                0x00000000100034f8                irq_set_enabled
 *fill*         0x0000000010003506        0x2 
 .text.irq_set_pending
                0x0000000010003508       0x10 CMakeFiles/telitHost.dir/mnt/LinuxApps/PicoSDK/pico-sdk/src/rp2_common/hardware_irq/irq.c.obj
                0x0000000010003508                irq_set_pending
 .text.irq_get_vtable_handler
                0x0000000010003518       0x10 CMakeFiles/telitHost.dir/mnt/LinuxApps/PicoSDK/pico-sdk/src/rp2_common/hardware_irq/irq.c.obj
                0x0000000010003518                irq_get_vtable_handler
 .text.irq_set_exclusive_handler
                0x0000000010003528       0x54 CMakeFiles/telitHost.dir/mnt/LinuxApps/PicoSDK/pico-sdk/src/rp2_common/hardware_irq/irq.c.obj
                0x0000000010003528                irq_set_exclusive_handler
 .text.irq_remove_handler
                0x000000001000357c      0x1ac CMakeFiles/telitHost.dir/mnt/LinuxApps/PicoSDK/pico-sdk/src/rp2_common/hardware_irq/irq.c.obj
                0x000000001000357c                irq_remove_handler
 .text.irq_add_tail_to_free_list
                0x0000000010003728       0xf0 CMakeFiles/telitHost.dir/mnt/LinuxApps/PicoSDK/pico-sdk/src/rp2_common/hardware_irq/irq.c.obj
                0x0000000010003728                irq_add_tail_to_free_list
 .text.irq_init_priorities
                0x0000000010003818       0x1c CMakeFiles/telitHost.dir/mnt/LinuxApps/PicoSDK/pico-sdk/src/rp2_common/hardware_irq/irq.c.obj
                0x0000000010003818                irq_init_priorities
 .text.pll_init
                0x0000000010003834      0x118 CMakeFiles/telitHost.dir/mnt/LinuxApps/PicoSDK/pico-sdk/src/rp2_common/hardware_pll/pll.c.obj
                0x0000000010003834                pll_init
 .text.watchdog_start_tick
                0x000000001000394c       0x10 CMakeFiles/telitHost.dir/mnt/LinuxApps/PicoSDK/pico-sdk/src/rp2_common/hardware_watchdog/watchdog.c.obj
                0x000000001000394c                watchdog_start_tick
 .text.watchdog_update
                0x000000001000395c       0x14 CMakeFiles/telitHost.dir/mnt/LinuxApps/PicoSDK/pico-sdk/src/rp2_common/hardware_watchdog/watchdog.c.obj
                0x000000001000395c                watchdog_update
 .text._watchdog_enable
                0x0000000010003970       0x78 CMakeFiles/telitHost.dir/mnt/LinuxApps/PicoSDK/pico-sdk/src/rp2_common/hardware_watchdog/watchdog.c.obj
                0x0000000010003970                _watchdog_enable
 .text.watchdog_reboot
                0x00000000100039e8       0x48 CMakeFiles/telitHost.dir/mnt/LinuxApps/PicoSDK/pico-sdk/src/rp2_common/hardware_watchdog/watchdog.c.obj
                0x00000000100039e8                watchdog_reboot
 .text.xosc_init
                0x0000000010003a30       0x28 CMakeFiles/telitHost.dir/mnt/LinuxApps/PicoSDK/pico-sdk/src/rp2_common/hardware_xosc/xosc.c.obj
                0x0000000010003a30                xosc_init
 .text._out_null
                0x0000000010003a58        0x2 CMakeFiles/telitHost.dir/mnt/LinuxApps/PicoSDK/pico-sdk/src/rp2_common/pico_printf/printf.c.obj
 .text._out_fct
                0x0000000010003a5a        0xe CMakeFiles/telitHost.dir/mnt/LinuxApps/PicoSDK/pico-sdk/src/rp2_common/pico_printf/printf.c.obj
 .text._atoi    0x0000000010003a68       0x24 CMakeFiles/telitHost.dir/mnt/LinuxApps/PicoSDK/pico-sdk/src/rp2_common/pico_printf/printf.c.obj
 .text._out_rev
                0x0000000010003a8c       0xae CMakeFiles/telitHost.dir/mnt/LinuxApps/PicoSDK/pico-sdk/src/rp2_common/pico_printf/printf.c.obj
 .text._ntoa_format
                0x0000000010003b3a      0x112 CMakeFiles/telitHost.dir/mnt/LinuxApps/PicoSDK/pico-sdk/src/rp2_common/pico_printf/printf.c.obj
 .text._ntoa_long
                0x0000000010003c4c       0xbc CMakeFiles/telitHost.dir/mnt/LinuxApps/PicoSDK/pico-sdk/src/rp2_common/pico_printf/printf.c.obj
 .text._ntoa_long_long
                0x0000000010003d08       0xe2 CMakeFiles/telitHost.dir/mnt/LinuxApps/PicoSDK/pico-sdk/src/rp2_common/pico_printf/printf.c.obj
 *fill*         0x0000000010003dea        0x2 
 .text._etoa    0x0000000010003dec      0x414 CMakeFiles/telitHost.dir/mnt/LinuxApps/PicoSDK/pico-sdk/src/rp2_common/pico_printf/printf.c.obj
 .text._ftoa    0x0000000010004200      0x354 CMakeFiles/telitHost.dir/mnt/LinuxApps/PicoSDK/pico-sdk/src/rp2_common/pico_printf/printf.c.obj
 .text._vsnprintf
                0x0000000010004554      0x624 CMakeFiles/telitHost.dir/mnt/LinuxApps/PicoSDK/pico-sdk/src/rp2_common/pico_printf/printf.c.obj
 .text.vfctprintf
                0x0000000010004b78       0x20 CMakeFiles/telitHost.dir/mnt/LinuxApps/PicoSDK/pico-sdk/src/rp2_common/pico_printf/printf.c.obj
                0x0000000010004b78                vfctprintf
 .text          0x0000000010004b98       0x10 CMakeFiles/telitHost.dir/mnt/LinuxApps/PicoSDK/pico-sdk/src/rp2_common/pico_bit_ops/bit_ops_aeabi.S.obj
 .text.rom_func_lookup
                0x0000000010004ba8       0x10 CMakeFiles/telitHost.dir/mnt/LinuxApps/PicoSDK/pico-sdk/src/rp2_common/pico_bootrom/bootrom.c.obj
                0x0000000010004ba8                rom_func_lookup
 .text.rom_data_lookup
                0x0000000010004bb8       0x10 CMakeFiles/telitHost.dir/mnt/LinuxApps/PicoSDK/pico-sdk/src/rp2_common/pico_bootrom/bootrom.c.obj
                0x0000000010004bb8                rom_data_lookup
 .text.rom_funcs_lookup
                0x0000000010004bc8       0x36 CMakeFiles/telitHost.dir/mnt/LinuxApps/PicoSDK/pico-sdk/src/rp2_common/pico_bootrom/bootrom.c.obj
                0x0000000010004bc8                rom_funcs_lookup
 *fill*         0x0000000010004bfe        0x2 
 .text.__wrap___aeabi_idiv
                0x0000000010004c00       0x50 CMakeFiles/telitHost.dir/mnt/LinuxApps/PicoSDK/pico-sdk/src/rp2_common/pico_divider/divider.S.obj
                0x0000000010004c00                __wrap___aeabi_idivmod
                0x0000000010004c00                divmod_s32s32
                0x0000000010004c00                div_s32s32
                0x0000000010004c00                __wrap___aeabi_idiv
                0x0000000010004c08                divmod_s32s32_unsafe
                0x0000000010004c34                divmod_s32s32_savestate
 .text.__wrap___aeabi_uidiv
                0x0000000010004c50       0x4c CMakeFiles/telitHost.dir/mnt/LinuxApps/PicoSDK/pico-sdk/src/rp2_common/pico_divider/divider.S.obj
                0x0000000010004c50                __wrap___aeabi_uidiv
                0x0000000010004c50                __wrap___aeabi_uidivmod
                0x0000000010004c50                div_u32u32
                0x0000000010004c50                divmod_u32u32
                0x0000000010004c58                divmod_u32u32_unsafe
                0x0000000010004c80                divmod_u32u32_savestate
 .text.__wrap___aeabi_ldiv
                0x0000000010004c9c      0x434 CMakeFiles/telitHost.dir/mnt/LinuxApps/PicoSDK/pico-sdk/src/rp2_common/pico_divider/divider.S.obj
                0x0000000010004c9c                div_s64s64
                0x0000000010004c9c                divmod_s64s64
                0x0000000010004c9c                __wrap___aeabi_ldivmod
                0x0000000010004cd4                div_u64u64
                0x0000000010004cd4                divmod_u64u64
                0x0000000010004cd4                __wrap___aeabi_uldivmod
                0x0000000010004ce4                divmod_u64u64_savestate
                0x0000000010004d0c                divmod_s64s64_unsafe
                0x0000000010004d94                divmod_u64u64_unsafe
 .text.__wrap___aeabi_darithmetic
                0x00000000100050d0       0x80 CMakeFiles/telitHost.dir/mnt/LinuxApps/PicoSDK/pico-sdk/src/rp2_common/pico_double/double_aeabi.S.obj
                0x00000000100050d0                __wrap___aeabi_drsub
                0x00000000100050d6                __wrap___aeabi_dsub
                0x00000000100050e8                __wrap___aeabi_dadd
                0x00000000100050fa                __wrap___aeabi_ddiv
                0x0000000010005136                __wrap___aeabi_dmul
 .text.__wrap___aeabi_cdcmple
                0x0000000010005150       0x6c CMakeFiles/telitHost.dir/mnt/LinuxApps/PicoSDK/pico-sdk/src/rp2_common/pico_double/double_aeabi.S.obj
                0x0000000010005150                __wrap___aeabi_cdrcmple
                0x0000000010005160                __wrap___aeabi_cdcmple
                0x0000000010005160                __wrap___aeabi_cdcmpeq
 .text.__wrap___aeabi_dcmplt
                0x00000000100051bc        0xc CMakeFiles/telitHost.dir/mnt/LinuxApps/PicoSDK/pico-sdk/src/rp2_common/pico_double/double_aeabi.S.obj
                0x00000000100051bc                __wrap___aeabi_dcmplt
 .text.__wrap___aeabi_dcmple
                0x00000000100051c8       0x10 CMakeFiles/telitHost.dir/mnt/LinuxApps/PicoSDK/pico-sdk/src/rp2_common/pico_double/double_aeabi.S.obj
                0x00000000100051c8                __wrap___aeabi_dcmple
 .text.__wrap___aeabi_dcmpge
                0x00000000100051d8       0x10 CMakeFiles/telitHost.dir/mnt/LinuxApps/PicoSDK/pico-sdk/src/rp2_common/pico_double/double_aeabi.S.obj
                0x00000000100051d8                __wrap___aeabi_dcmpge
 .text.__wrap___aeabi_dcmpgt
                0x00000000100051e8        0xa CMakeFiles/telitHost.dir/mnt/LinuxApps/PicoSDK/pico-sdk/src/rp2_common/pico_double/double_aeabi.S.obj
                0x00000000100051e8                __wrap___aeabi_dcmpgt
 .text.__wrap___aeabi_dcmpun
                0x00000000100051f2       0x1c CMakeFiles/telitHost.dir/mnt/LinuxApps/PicoSDK/pico-sdk/src/rp2_common/pico_double/double_aeabi.S.obj
                0x00000000100051f2                __wrap___aeabi_dcmpun
 *fill*         0x000000001000520e        0x2 
 .text.__wrap___aeabi_i2d
                0x0000000010005210       0x38 CMakeFiles/telitHost.dir/mnt/LinuxApps/PicoSDK/pico-sdk/src/rp2_common/pico_double/double_aeabi.S.obj
                0x0000000010005210                __wrap___aeabi_ui2d
                0x0000000010005218                __wrap___aeabi_i2d
 .text.__wrap___aeabi_d2iz
                0x0000000010005248       0x48 CMakeFiles/telitHost.dir/mnt/LinuxApps/PicoSDK/pico-sdk/src/rp2_common/pico_double/double_aeabi.S.obj
                0x0000000010005248                __wrap___aeabi_d2iz
                0x0000000010005248                double2int_z
 .text.__wrap___aeabi_d2uiz
                0x0000000010005290       0x18 CMakeFiles/telitHost.dir/mnt/LinuxApps/PicoSDK/pico-sdk/src/rp2_common/pico_double/double_aeabi.S.obj
                0x0000000010005290                double2uint
                0x0000000010005290                __wrap___aeabi_d2uiz
 .text.__aeabi_double_init
                0x00000000100052a8       0xc8 CMakeFiles/telitHost.dir/mnt/LinuxApps/PicoSDK/pico-sdk/src/rp2_common/pico_double/double_init_rom.c.obj
                0x00000000100052a8                __aeabi_double_init
 .text.double_table_shim_on_use_helper
                0x0000000010005370       0x34 CMakeFiles/telitHost.dir/mnt/LinuxApps/PicoSDK/pico-sdk/src/rp2_common/pico_double/double_v1_rom_shim.S.obj
                0x0000000010005370                double_table_shim_on_use_helper
 .text.__wrap___aeabi_dsub
                0x00000000100053a4       0x10 CMakeFiles/telitHost.dir/mnt/LinuxApps/PicoSDK/pico-sdk/src/rp2_common/pico_double/double_v1_rom_shim.S.obj
                0x00000000100053a4                drsub_shim
                0x00000000100053aa                dsub_shim
 .text.dadd_shim
                0x00000000100053b4      0x15c CMakeFiles/telitHost.dir/mnt/LinuxApps/PicoSDK/pico-sdk/src/rp2_common/pico_double/double_v1_rom_shim.S.obj
                0x00000000100053b4                dadd_shim
 .text.dmul_shim
                0x0000000010005510      0x15c CMakeFiles/telitHost.dir/mnt/LinuxApps/PicoSDK/pico-sdk/src/rp2_common/pico_double/double_v1_rom_shim.S.obj
                0x0000000010005510                dmul_shim
 .text.ddiv_shim
                0x000000001000566c      0x1b0 CMakeFiles/telitHost.dir/mnt/LinuxApps/PicoSDK/pico-sdk/src/rp2_common/pico_double/double_v1_rom_shim.S.obj
                0x000000001000566c                ddiv_shim
 .text.double2uint_shim
                0x000000001000581c        0xe CMakeFiles/telitHost.dir/mnt/LinuxApps/PicoSDK/pico-sdk/src/rp2_common/pico_double/double_v1_rom_shim.S.obj
                0x000000001000581c                double2uint_shim
                0x000000001000581e                double2ufix_shim
 *fill*         0x000000001000582a        0x2 
 .text.double2uint64_shim
                0x000000001000582c       0x70 CMakeFiles/telitHost.dir/mnt/LinuxApps/PicoSDK/pico-sdk/src/rp2_common/pico_double/double_v1_rom_shim.S.obj
                0x000000001000582c                double2uint64_shim
                0x000000001000582e                double2ufix64_shim
                0x000000001000584e                d2fix_a
 .text.dunpacks
                0x000000001000589c       0x3c CMakeFiles/telitHost.dir/mnt/LinuxApps/PicoSDK/pico-sdk/src/rp2_common/pico_double/double_v1_rom_shim.S.obj
                0x000000001000589c                dunpacks
 .text.__aeabi_lmul
                0x00000000100058d8       0x32 CMakeFiles/telitHost.dir/mnt/LinuxApps/PicoSDK/pico-sdk/src/rp2_common/pico_int64_ops/pico_int64_ops_aeabi.S.obj
                0x00000000100058d8                __wrap___aeabi_lmul
 *fill*         0x000000001000590a        0x2 
 .text.__aeabi_float_init
                0x000000001000590c       0xfc CMakeFiles/telitHost.dir/mnt/LinuxApps/PicoSDK/pico-sdk/src/rp2_common/pico_float/float_init_rom.c.obj
                0x000000001000590c                __aeabi_float_init
 .text.float_table_shim_on_use_helper
                0x0000000010005a08       0x34 CMakeFiles/telitHost.dir/mnt/LinuxApps/PicoSDK/pico-sdk/src/rp2_common/pico_float/float_v1_rom_shim.S.obj
                0x0000000010005a08                float_table_shim_on_use_helper
 .text.__wrap_malloc
                0x0000000010005a3c       0x24 CMakeFiles/telitHost.dir/mnt/LinuxApps/PicoSDK/pico-sdk/src/rp2_common/pico_malloc/pico_malloc.c.obj
                0x0000000010005a3c                __wrap_malloc
 .text.__wrap_free
                0x0000000010005a60        0x8 CMakeFiles/telitHost.dir/mnt/LinuxApps/PicoSDK/pico-sdk/src/rp2_common/pico_malloc/pico_malloc.c.obj
                0x0000000010005a60                __wrap_free
 .text          0x0000000010005a68       0x10 CMakeFiles/telitHost.dir/mnt/LinuxApps/PicoSDK/pico-sdk/src/rp2_common/pico_mem_ops/mem_ops_aeabi.S.obj
                0x0000000010005a68                __aeabi_mem_init
 .text.memset   0x0000000010005a78        0xc CMakeFiles/telitHost.dir/mnt/LinuxApps/PicoSDK/pico-sdk/src/rp2_common/pico_mem_ops/mem_ops_aeabi.S.obj
                0x0000000010005a78                __wrap_memset
 .text.memcpy   0x0000000010005a84        0xc CMakeFiles/telitHost.dir/mnt/LinuxApps/PicoSDK/pico-sdk/src/rp2_common/pico_mem_ops/mem_ops_aeabi.S.obj
                0x0000000010005a84                __wrap___aeabi_memcpy
                0x0000000010005a84                __wrap_memcpy
 .text.stdio_out_chars_no_crlf
                0x0000000010005a90        0xe CMakeFiles/telitHost.dir/mnt/LinuxApps/PicoSDK/pico-sdk/src/rp2_common/pico_stdio/stdio.c.obj
 *fill*         0x0000000010005a9e        0x2 
 .text.stdio_out_chars_crlf
                0x0000000010005aa0       0x80 CMakeFiles/telitHost.dir/mnt/LinuxApps/PicoSDK/pico-sdk/src/rp2_common/pico_stdio/stdio.c.obj
 .text.stdio_stack_buffer_flush
                0x0000000010005b20       0x44 CMakeFiles/telitHost.dir/mnt/LinuxApps/PicoSDK/pico-sdk/src/rp2_common/pico_stdio/stdio.c.obj
 .text.stdio_buffered_printer
                0x0000000010005b64       0x20 CMakeFiles/telitHost.dir/mnt/LinuxApps/PicoSDK/pico-sdk/src/rp2_common/pico_stdio/stdio.c.obj
 .text.stdio_get_until
                0x0000000010005b84       0x80 CMakeFiles/telitHost.dir/mnt/LinuxApps/PicoSDK/pico-sdk/src/rp2_common/pico_stdio/stdio.c.obj
 .text.stdout_serialize_begin
                0x0000000010005c04       0x30 CMakeFiles/telitHost.dir/mnt/LinuxApps/PicoSDK/pico-sdk/src/rp2_common/pico_stdio/stdio.c.obj
                0x0000000010005c04                stdout_serialize_begin
 .text.stdout_serialize_end
                0x0000000010005c34       0x10 CMakeFiles/telitHost.dir/mnt/LinuxApps/PicoSDK/pico-sdk/src/rp2_common/pico_stdio/stdio.c.obj
                0x0000000010005c34                stdout_serialize_end
 .text.stdio_put_string
                0x0000000010005c44       0x98 CMakeFiles/telitHost.dir/mnt/LinuxApps/PicoSDK/pico-sdk/src/rp2_common/pico_stdio/stdio.c.obj
 .text.stdio_set_driver_enabled
                0x0000000010005cdc       0x38 CMakeFiles/telitHost.dir/mnt/LinuxApps/PicoSDK/pico-sdk/src/rp2_common/pico_stdio/stdio.c.obj
                0x0000000010005cdc                stdio_set_driver_enabled
 .text.stdio_flush
                0x0000000010005d14       0x20 CMakeFiles/telitHost.dir/mnt/LinuxApps/PicoSDK/pico-sdk/src/rp2_common/pico_stdio/stdio.c.obj
                0x0000000010005d14                stdio_flush
 .text.__wrap_puts
                0x0000000010005d34       0x1e CMakeFiles/telitHost.dir/mnt/LinuxApps/PicoSDK/pico-sdk/src/rp2_common/pico_stdio/stdio.c.obj
                0x0000000010005d34                __wrap_puts
 *fill*         0x0000000010005d52        0x2 
 .text.__wrap_vprintf
                0x0000000010005d54       0x44 CMakeFiles/telitHost.dir/mnt/LinuxApps/PicoSDK/pico-sdk/src/rp2_common/pico_stdio/stdio.c.obj
                0x0000000010005d54                __wrap_vprintf
 .text.__wrap_printf
                0x0000000010005d98       0x18 CMakeFiles/telitHost.dir/mnt/LinuxApps/PicoSDK/pico-sdk/src/rp2_common/pico_stdio/stdio.c.obj
                0x0000000010005d98                __wrap_printf
 .text.stdio_init_all
                0x0000000010005db0        0x8 CMakeFiles/telitHost.dir/mnt/LinuxApps/PicoSDK/pico-sdk/src/rp2_common/pico_stdio/stdio.c.obj
                0x0000000010005db0                stdio_init_all
 .text.getchar_timeout_us
                0x0000000010005db8       0x80 CMakeFiles/telitHost.dir/mnt/LinuxApps/PicoSDK/pico-sdk/src/rp2_common/pico_stdio/stdio.c.obj
                0x0000000010005db8                getchar_timeout_us
 .text.resetd_init
                0x0000000010005e38        0x2 CMakeFiles/telitHost.dir/mnt/LinuxApps/PicoSDK/pico-sdk/src/rp2_common/pico_stdio_usb/reset_interface.c.obj
 *fill*         0x0000000010005e3a        0x2 
 .text.resetd_reset
                0x0000000010005e3c        0xc CMakeFiles/telitHost.dir/mnt/LinuxApps/PicoSDK/pico-sdk/src/rp2_common/pico_stdio_usb/reset_interface.c.obj
 .text.resetd_open
                0x0000000010005e48       0x34 CMakeFiles/telitHost.dir/mnt/LinuxApps/PicoSDK/pico-sdk/src/rp2_common/pico_stdio_usb/reset_interface.c.obj
 .text.resetd_xfer_cb
                0x0000000010005e7c        0x4 CMakeFiles/telitHost.dir/mnt/LinuxApps/PicoSDK/pico-sdk/src/rp2_common/pico_stdio_usb/reset_interface.c.obj
 .text.reset_usb_boot
                0x0000000010005e80       0x18 CMakeFiles/telitHost.dir/mnt/LinuxApps/PicoSDK/pico-sdk/src/rp2_common/pico_stdio_usb/reset_interface.c.obj
 .text.resetd_control_xfer_cb
                0x0000000010005e98       0x5c CMakeFiles/telitHost.dir/mnt/LinuxApps/PicoSDK/pico-sdk/src/rp2_common/pico_stdio_usb/reset_interface.c.obj
 .text.usbd_app_driver_get_cb
                0x0000000010005ef4        0xc CMakeFiles/telitHost.dir/mnt/LinuxApps/PicoSDK/pico-sdk/src/rp2_common/pico_stdio_usb/reset_interface.c.obj
                0x0000000010005ef4                usbd_app_driver_get_cb
 .text.tud_cdc_line_coding_cb
                0x0000000010005f00       0x28 CMakeFiles/telitHost.dir/mnt/LinuxApps/PicoSDK/pico-sdk/src/rp2_common/pico_stdio_usb/reset_interface.c.obj
                0x0000000010005f00                tud_cdc_line_coding_cb
 .text.stdio_usb_in_chars
                0x0000000010005f28       0x70 CMakeFiles/telitHost.dir/mnt/LinuxApps/PicoSDK/pico-sdk/src/rp2_common/pico_stdio_usb/stdio_usb.c.obj
                0x0000000010005f28                stdio_usb_in_chars
 .text.low_priority_worker_irq
                0x0000000010005f98       0x20 CMakeFiles/telitHost.dir/mnt/LinuxApps/PicoSDK/pico-sdk/src/rp2_common/pico_stdio_usb/stdio_usb.c.obj
 .text.stdio_usb_out_chars
                0x0000000010005fb8       0xd4 CMakeFiles/telitHost.dir/mnt/LinuxApps/PicoSDK/pico-sdk/src/rp2_common/pico_stdio_usb/stdio_usb.c.obj
 .text.timer_task
                0x000000001000608c       0x10 CMakeFiles/telitHost.dir/mnt/LinuxApps/PicoSDK/pico-sdk/src/rp2_common/pico_stdio_usb/stdio_usb.c.obj
 .text.stdio_usb_init
                0x000000001000609c       0xb8 CMakeFiles/telitHost.dir/mnt/LinuxApps/PicoSDK/pico-sdk/src/rp2_common/pico_stdio_usb/stdio_usb.c.obj
                0x000000001000609c                stdio_usb_init
 .text.tud_descriptor_device_cb
                0x0000000010006154        0x8 CMakeFiles/telitHost.dir/mnt/LinuxApps/PicoSDK/pico-sdk/src/rp2_common/pico_stdio_usb/stdio_usb_descriptors.c.obj
                0x0000000010006154                tud_descriptor_device_cb
 .text.tud_descriptor_configuration_cb
                0x000000001000615c        0x8 CMakeFiles/telitHost.dir/mnt/LinuxApps/PicoSDK/pico-sdk/src/rp2_common/pico_stdio_usb/stdio_usb_descriptors.c.obj
                0x000000001000615c                tud_descriptor_configuration_cb
 .text.tud_descriptor_string_cb
                0x0000000010006164       0x6c CMakeFiles/telitHost.dir/mnt/LinuxApps/PicoSDK/pico-sdk/src/rp2_common/pico_stdio_usb/stdio_usb_descriptors.c.obj
                0x0000000010006164                tud_descriptor_string_cb
 .text.hw_endpoint_get_by_addr
                0x00000000100061d0       0x18 CMakeFiles/telitHost.dir/mnt/LinuxApps/PicoSDK/pico-sdk/lib/tinyusb/src/portable/raspberrypi/rp2040/dcd_rp2040.c.obj
 .text.reset_ep0_pid
                0x00000000100061e8       0x28 CMakeFiles/telitHost.dir/mnt/LinuxApps/PicoSDK/pico-sdk/lib/tinyusb/src/portable/raspberrypi/rp2040/dcd_rp2040.c.obj
 .text._hw_endpoint_alloc
                0x0000000010006210       0x70 CMakeFiles/telitHost.dir/mnt/LinuxApps/PicoSDK/pico-sdk/lib/tinyusb/src/portable/raspberrypi/rp2040/dcd_rp2040.c.obj
 .text.hw_endpoint_init
                0x0000000010006280       0x88 CMakeFiles/telitHost.dir/mnt/LinuxApps/PicoSDK/pico-sdk/lib/tinyusb/src/portable/raspberrypi/rp2040/dcd_rp2040.c.obj
 .text.reset_non_control_endpoints
                0x0000000010006308       0x40 CMakeFiles/telitHost.dir/mnt/LinuxApps/PicoSDK/pico-sdk/lib/tinyusb/src/portable/raspberrypi/rp2040/dcd_rp2040.c.obj
 .text.hw_handle_buff_status
                0x0000000010006348       0x8c CMakeFiles/telitHost.dir/mnt/LinuxApps/PicoSDK/pico-sdk/lib/tinyusb/src/portable/raspberrypi/rp2040/dcd_rp2040.c.obj
 .text.dcd_rp2040_irq
                0x00000000100063d4       0xc0 CMakeFiles/telitHost.dir/mnt/LinuxApps/PicoSDK/pico-sdk/lib/tinyusb/src/portable/raspberrypi/rp2040/dcd_rp2040.c.obj
 .text.hw_endpoint_xfer
                0x0000000010006494       0x14 CMakeFiles/telitHost.dir/mnt/LinuxApps/PicoSDK/pico-sdk/lib/tinyusb/src/portable/raspberrypi/rp2040/dcd_rp2040.c.obj
 .text.dcd_int_enable
                0x00000000100064a8       0x2c CMakeFiles/telitHost.dir/mnt/LinuxApps/PicoSDK/pico-sdk/lib/tinyusb/src/portable/raspberrypi/rp2040/dcd_rp2040.c.obj
                0x00000000100064a8                dcd_int_enable
 .text.dcd_set_address
                0x00000000100064d4       0x2c CMakeFiles/telitHost.dir/mnt/LinuxApps/PicoSDK/pico-sdk/lib/tinyusb/src/portable/raspberrypi/rp2040/dcd_rp2040.c.obj
                0x00000000100064d4                dcd_set_address
 .text.dcd_connect
                0x0000000010006500       0x10 CMakeFiles/telitHost.dir/mnt/LinuxApps/PicoSDK/pico-sdk/lib/tinyusb/src/portable/raspberrypi/rp2040/dcd_rp2040.c.obj
                0x0000000010006500                dcd_connect
 .text.dcd_init
                0x0000000010006510       0x7c CMakeFiles/telitHost.dir/mnt/LinuxApps/PicoSDK/pico-sdk/lib/tinyusb/src/portable/raspberrypi/rp2040/dcd_rp2040.c.obj
                0x0000000010006510                dcd_init
 .text.dcd_edpt0_status_complete
                0x000000001000658c       0x1c CMakeFiles/telitHost.dir/mnt/LinuxApps/PicoSDK/pico-sdk/lib/tinyusb/src/portable/raspberrypi/rp2040/dcd_rp2040.c.obj
                0x000000001000658c                dcd_edpt0_status_complete
 .text.dcd_edpt_open
                0x00000000100065a8       0x40 CMakeFiles/telitHost.dir/mnt/LinuxApps/PicoSDK/pico-sdk/lib/tinyusb/src/portable/raspberrypi/rp2040/dcd_rp2040.c.obj
                0x00000000100065a8                dcd_edpt_open
 .text.dcd_edpt_close_all
                0x00000000100065e8        0x8 CMakeFiles/telitHost.dir/mnt/LinuxApps/PicoSDK/pico-sdk/lib/tinyusb/src/portable/raspberrypi/rp2040/dcd_rp2040.c.obj
                0x00000000100065e8                dcd_edpt_close_all
 .text.dcd_edpt_xfer
                0x00000000100065f0       0x30 CMakeFiles/telitHost.dir/mnt/LinuxApps/PicoSDK/pico-sdk/lib/tinyusb/src/portable/raspberrypi/rp2040/dcd_rp2040.c.obj
                0x00000000100065f0                dcd_edpt_xfer
 .text.dcd_edpt_stall
                0x0000000010006620       0x2c CMakeFiles/telitHost.dir/mnt/LinuxApps/PicoSDK/pico-sdk/lib/tinyusb/src/portable/raspberrypi/rp2040/dcd_rp2040.c.obj
                0x0000000010006620                dcd_edpt_stall
 .text.dcd_edpt_clear_stall
                0x000000001000664c       0x20 CMakeFiles/telitHost.dir/mnt/LinuxApps/PicoSDK/pico-sdk/lib/tinyusb/src/portable/raspberrypi/rp2040/dcd_rp2040.c.obj
                0x000000001000664c                dcd_edpt_clear_stall
 .text.prepare_ep_buffer
                0x000000001000666c       0x70 CMakeFiles/telitHost.dir/mnt/LinuxApps/PicoSDK/pico-sdk/lib/tinyusb/src/portable/raspberrypi/rp2040/rp2040_usb.c.obj
 .text.sync_ep_buffer
                0x00000000100066dc       0x7c CMakeFiles/telitHost.dir/mnt/LinuxApps/PicoSDK/pico-sdk/lib/tinyusb/src/portable/raspberrypi/rp2040/rp2040_usb.c.obj
 .text._hw_endpoint_xfer_sync
                0x0000000010006758       0x28 CMakeFiles/telitHost.dir/mnt/LinuxApps/PicoSDK/pico-sdk/lib/tinyusb/src/portable/raspberrypi/rp2040/rp2040_usb.c.obj
 .text.rp2040_usb_init
                0x0000000010006780       0x4c CMakeFiles/telitHost.dir/mnt/LinuxApps/PicoSDK/pico-sdk/lib/tinyusb/src/portable/raspberrypi/rp2040/rp2040_usb.c.obj
                0x0000000010006780                rp2040_usb_init
 .text.hw_endpoint_reset_transfer
                0x00000000100067cc        0xc CMakeFiles/telitHost.dir/mnt/LinuxApps/PicoSDK/pico-sdk/lib/tinyusb/src/portable/raspberrypi/rp2040/rp2040_usb.c.obj
                0x00000000100067cc                hw_endpoint_reset_transfer
 .text._hw_endpoint_buffer_control_update32
                0x00000000100067d8       0x58 CMakeFiles/telitHost.dir/mnt/LinuxApps/PicoSDK/pico-sdk/lib/tinyusb/src/portable/raspberrypi/rp2040/rp2040_usb.c.obj
                0x00000000100067d8                _hw_endpoint_buffer_control_update32
 .text._hw_endpoint_start_next_buffer
                0x0000000010006830       0x74 CMakeFiles/telitHost.dir/mnt/LinuxApps/PicoSDK/pico-sdk/lib/tinyusb/src/portable/raspberrypi/rp2040/rp2040_usb.c.obj
 .text.hw_endpoint_xfer_start
                0x00000000100068a4       0x48 CMakeFiles/telitHost.dir/mnt/LinuxApps/PicoSDK/pico-sdk/lib/tinyusb/src/portable/raspberrypi/rp2040/rp2040_usb.c.obj
                0x00000000100068a4                hw_endpoint_xfer_start
 .text.hw_endpoint_xfer_continue
                0x00000000100068ec       0x38 CMakeFiles/telitHost.dir/mnt/LinuxApps/PicoSDK/pico-sdk/lib/tinyusb/src/portable/raspberrypi/rp2040/rp2040_usb.c.obj
                0x00000000100068ec                hw_endpoint_xfer_continue
 .text.configuration_reset
                0x0000000010006924       0x84 CMakeFiles/telitHost.dir/mnt/LinuxApps/PicoSDK/pico-sdk/lib/tinyusb/src/device/usbd.c.obj
 .text.usbd_reset
                0x00000000100069a8        0xc CMakeFiles/telitHost.dir/mnt/LinuxApps/PicoSDK/pico-sdk/lib/tinyusb/src/device/usbd.c.obj
 .text.invoke_class_control
                0x00000000100069b4       0x1a CMakeFiles/telitHost.dir/mnt/LinuxApps/PicoSDK/pico-sdk/lib/tinyusb/src/device/usbd.c.obj
 *fill*         0x00000000100069ce        0x2 
 .text.process_set_config
                0x00000000100069d0      0x1b0 CMakeFiles/telitHost.dir/mnt/LinuxApps/PicoSDK/pico-sdk/lib/tinyusb/src/device/usbd.c.obj
 .text.process_get_descriptor
                0x0000000010006b80       0xec CMakeFiles/telitHost.dir/mnt/LinuxApps/PicoSDK/pico-sdk/lib/tinyusb/src/device/usbd.c.obj
 .text.tud_mounted
                0x0000000010006c6c       0x10 CMakeFiles/telitHost.dir/mnt/LinuxApps/PicoSDK/pico-sdk/lib/tinyusb/src/device/usbd.c.obj
                0x0000000010006c6c                tud_mounted
 .text.tud_suspended
                0x0000000010006c7c       0x10 CMakeFiles/telitHost.dir/mnt/LinuxApps/PicoSDK/pico-sdk/lib/tinyusb/src/device/usbd.c.obj
                0x0000000010006c7c                tud_suspended
 .text.tud_inited
                0x0000000010006c8c        0xc CMakeFiles/telitHost.dir/mnt/LinuxApps/PicoSDK/pico-sdk/lib/tinyusb/src/device/usbd.c.obj
                0x0000000010006c8c                tud_inited
 .text.tud_init
                0x0000000010006c98       0xcc CMakeFiles/telitHost.dir/mnt/LinuxApps/PicoSDK/pico-sdk/lib/tinyusb/src/device/usbd.c.obj
                0x0000000010006c98                tud_init
 .text.dcd_event_handler
                0x0000000010006d64      0x1e0 CMakeFiles/telitHost.dir/mnt/LinuxApps/PicoSDK/pico-sdk/lib/tinyusb/src/device/usbd.c.obj
                0x0000000010006d64                dcd_event_handler
 .text.dcd_event_bus_signal
                0x0000000010006f44       0x26 CMakeFiles/telitHost.dir/mnt/LinuxApps/PicoSDK/pico-sdk/lib/tinyusb/src/device/usbd.c.obj
                0x0000000010006f44                dcd_event_bus_signal
 .text.dcd_event_bus_reset
                0x0000000010006f6a       0x2a CMakeFiles/telitHost.dir/mnt/LinuxApps/PicoSDK/pico-sdk/lib/tinyusb/src/device/usbd.c.obj
                0x0000000010006f6a                dcd_event_bus_reset
 .text.dcd_event_setup_received
                0x0000000010006f94       0x34 CMakeFiles/telitHost.dir/mnt/LinuxApps/PicoSDK/pico-sdk/lib/tinyusb/src/device/usbd.c.obj
                0x0000000010006f94                dcd_event_setup_received
 .text.dcd_event_xfer_complete
                0x0000000010006fc8       0x44 CMakeFiles/telitHost.dir/mnt/LinuxApps/PicoSDK/pico-sdk/lib/tinyusb/src/device/usbd.c.obj
                0x0000000010006fc8                dcd_event_xfer_complete
 .text.usbd_edpt_open
                0x000000001000700c       0x58 CMakeFiles/telitHost.dir/mnt/LinuxApps/PicoSDK/pico-sdk/lib/tinyusb/src/device/usbd.c.obj
                0x000000001000700c                usbd_edpt_open
 .text.usbd_open_edpt_pair
                0x0000000010007064       0x8c CMakeFiles/telitHost.dir/mnt/LinuxApps/PicoSDK/pico-sdk/lib/tinyusb/src/device/usbd.c.obj
                0x0000000010007064                usbd_open_edpt_pair
 .text.usbd_edpt_claim
                0x00000000100070f0       0x8c CMakeFiles/telitHost.dir/mnt/LinuxApps/PicoSDK/pico-sdk/lib/tinyusb/src/device/usbd.c.obj
                0x00000000100070f0                usbd_edpt_claim
 .text.usbd_edpt_release
                0x000000001000717c       0x68 CMakeFiles/telitHost.dir/mnt/LinuxApps/PicoSDK/pico-sdk/lib/tinyusb/src/device/usbd.c.obj
                0x000000001000717c                usbd_edpt_release
 .text.usbd_edpt_xfer
                0x00000000100071e4       0x80 CMakeFiles/telitHost.dir/mnt/LinuxApps/PicoSDK/pico-sdk/lib/tinyusb/src/device/usbd.c.obj
                0x00000000100071e4                usbd_edpt_xfer
 .text.usbd_edpt_stall
                0x0000000010007264       0x40 CMakeFiles/telitHost.dir/mnt/LinuxApps/PicoSDK/pico-sdk/lib/tinyusb/src/device/usbd.c.obj
                0x0000000010007264                usbd_edpt_stall
 .text.usbd_edpt_clear_stall
                0x00000000100072a4       0x40 CMakeFiles/telitHost.dir/mnt/LinuxApps/PicoSDK/pico-sdk/lib/tinyusb/src/device/usbd.c.obj
                0x00000000100072a4                usbd_edpt_clear_stall
 .text.usbd_edpt_stalled
                0x00000000100072e4       0x1c CMakeFiles/telitHost.dir/mnt/LinuxApps/PicoSDK/pico-sdk/lib/tinyusb/src/device/usbd.c.obj
                0x00000000100072e4                usbd_edpt_stalled
 .text.process_control_request
                0x0000000010007300      0x3b8 CMakeFiles/telitHost.dir/mnt/LinuxApps/PicoSDK/pico-sdk/lib/tinyusb/src/device/usbd.c.obj
 .text.tud_task
                0x00000000100076b8      0x218 CMakeFiles/telitHost.dir/mnt/LinuxApps/PicoSDK/pico-sdk/lib/tinyusb/src/device/usbd.c.obj
                0x00000000100076b8                tud_task
 .text._data_stage_xact
                0x00000000100078d0       0x58 CMakeFiles/telitHost.dir/mnt/LinuxApps/PicoSDK/pico-sdk/lib/tinyusb/src/device/usbd_control.c.obj
 .text.tud_control_status
                0x0000000010007928       0x38 CMakeFiles/telitHost.dir/mnt/LinuxApps/PicoSDK/pico-sdk/lib/tinyusb/src/device/usbd_control.c.obj
                0x0000000010007928                tud_control_status
 .text.tud_control_xfer
                0x0000000010007960       0xa8 CMakeFiles/telitHost.dir/mnt/LinuxApps/PicoSDK/pico-sdk/lib/tinyusb/src/device/usbd_control.c.obj
                0x0000000010007960                tud_control_xfer
 .text.usbd_control_reset
                0x0000000010007a08       0x14 CMakeFiles/telitHost.dir/mnt/LinuxApps/PicoSDK/pico-sdk/lib/tinyusb/src/device/usbd_control.c.obj
                0x0000000010007a08                usbd_control_reset
 .text.usbd_control_set_complete_callback
                0x0000000010007a1c        0xc CMakeFiles/telitHost.dir/mnt/LinuxApps/PicoSDK/pico-sdk/lib/tinyusb/src/device/usbd_control.c.obj
                0x0000000010007a1c                usbd_control_set_complete_callback
 .text.usbd_control_set_request
                0x0000000010007a28       0x1c CMakeFiles/telitHost.dir/mnt/LinuxApps/PicoSDK/pico-sdk/lib/tinyusb/src/device/usbd_control.c.obj
                0x0000000010007a28                usbd_control_set_request
 .text.usbd_control_xfer_cb
                0x0000000010007a44       0xfc CMakeFiles/telitHost.dir/mnt/LinuxApps/PicoSDK/pico-sdk/lib/tinyusb/src/device/usbd_control.c.obj
                0x0000000010007a44                usbd_control_xfer_cb
 .text._prep_out_transaction
                0x0000000010007b40       0x46 CMakeFiles/telitHost.dir/mnt/LinuxApps/PicoSDK/pico-sdk/lib/tinyusb/src/class/cdc/cdc_device.c.obj
 *fill*         0x0000000010007b86        0x2 
 .text.tud_cdc_n_connected
                0x0000000010007b88       0x44 CMakeFiles/telitHost.dir/mnt/LinuxApps/PicoSDK/pico-sdk/lib/tinyusb/src/class/cdc/cdc_device.c.obj
                0x0000000010007b88                tud_cdc_n_connected
 .text.tud_cdc_n_available
                0x0000000010007bcc       0x18 CMakeFiles/telitHost.dir/mnt/LinuxApps/PicoSDK/pico-sdk/lib/tinyusb/src/class/cdc/cdc_device.c.obj
                0x0000000010007bcc                tud_cdc_n_available
 .text.tud_cdc_n_read
                0x0000000010007be4       0x28 CMakeFiles/telitHost.dir/mnt/LinuxApps/PicoSDK/pico-sdk/lib/tinyusb/src/class/cdc/cdc_device.c.obj
                0x0000000010007be4                tud_cdc_n_read
 .text.tud_cdc_n_write_flush
                0x0000000010007c0c       0xcc CMakeFiles/telitHost.dir/mnt/LinuxApps/PicoSDK/pico-sdk/lib/tinyusb/src/class/cdc/cdc_device.c.obj
                0x0000000010007c0c                tud_cdc_n_write_flush
 .text.tud_cdc_n_write
                0x0000000010007cd8       0x38 CMakeFiles/telitHost.dir/mnt/LinuxApps/PicoSDK/pico-sdk/lib/tinyusb/src/class/cdc/cdc_device.c.obj
                0x0000000010007cd8                tud_cdc_n_write
 .text.tud_cdc_n_write_available
                0x0000000010007d10       0x1c CMakeFiles/telitHost.dir/mnt/LinuxApps/PicoSDK/pico-sdk/lib/tinyusb/src/class/cdc/cdc_device.c.obj
                0x0000000010007d10                tud_cdc_n_write_available
 .text.cdcd_init
                0x0000000010007d2c       0xbc CMakeFiles/telitHost.dir/mnt/LinuxApps/PicoSDK/pico-sdk/lib/tinyusb/src/class/cdc/cdc_device.c.obj
                0x0000000010007d2c                cdcd_init
 .text.cdcd_reset
                0x0000000010007de8       0x44 CMakeFiles/telitHost.dir/mnt/LinuxApps/PicoSDK/pico-sdk/lib/tinyusb/src/class/cdc/cdc_device.c.obj
                0x0000000010007de8                cdcd_reset
 .text.cdcd_open
                0x0000000010007e2c       0xf8 CMakeFiles/telitHost.dir/mnt/LinuxApps/PicoSDK/pico-sdk/lib/tinyusb/src/class/cdc/cdc_device.c.obj
                0x0000000010007e2c                cdcd_open
 .text.cdcd_control_xfer_cb
                0x0000000010007f24      0x134 CMakeFiles/telitHost.dir/mnt/LinuxApps/PicoSDK/pico-sdk/lib/tinyusb/src/class/cdc/cdc_device.c.obj
                0x0000000010007f24                cdcd_control_xfer_cb
 .text.cdcd_xfer_cb
                0x0000000010008058      0x144 CMakeFiles/telitHost.dir/mnt/LinuxApps/PicoSDK/pico-sdk/lib/tinyusb/src/class/cdc/cdc_device.c.obj
                0x0000000010008058                cdcd_xfer_cb
 .text.tusb_init
                0x000000001000819c       0x24 CMakeFiles/telitHost.dir/mnt/LinuxApps/PicoSDK/pico-sdk/lib/tinyusb/src/tusb.c.obj
                0x000000001000819c                tusb_init
 .text.tusb_inited
                0x00000000100081c0        0xe CMakeFiles/telitHost.dir/mnt/LinuxApps/PicoSDK/pico-sdk/lib/tinyusb/src/tusb.c.obj
                0x00000000100081c0                tusb_inited
 *fill*         0x00000000100081ce        0x2 
 .text.tu_edpt_validate
                0x00000000100081d0       0xa8 CMakeFiles/telitHost.dir/mnt/LinuxApps/PicoSDK/pico-sdk/lib/tinyusb/src/tusb.c.obj
                0x00000000100081d0                tu_edpt_validate
 .text.tu_edpt_bind_driver
                0x0000000010008278       0x2a CMakeFiles/telitHost.dir/mnt/LinuxApps/PicoSDK/pico-sdk/lib/tinyusb/src/tusb.c.obj
                0x0000000010008278                tu_edpt_bind_driver
 .text.advance_pointer
                0x00000000100082a2       0x18 CMakeFiles/telitHost.dir/mnt/LinuxApps/PicoSDK/pico-sdk/lib/tinyusb/src/common/tusb_fifo.c.obj
 .text.backward_pointer
                0x00000000100082ba       0x1e CMakeFiles/telitHost.dir/mnt/LinuxApps/PicoSDK/pico-sdk/lib/tinyusb/src/common/tusb_fifo.c.obj
 .text.get_relative_pointer
                0x00000000100082d8       0x10 CMakeFiles/telitHost.dir/mnt/LinuxApps/PicoSDK/pico-sdk/lib/tinyusb/src/common/tusb_fifo.c.obj
 .text._tu_fifo_peek
                0x00000000100082e8       0x50 CMakeFiles/telitHost.dir/mnt/LinuxApps/PicoSDK/pico-sdk/lib/tinyusb/src/common/tusb_fifo.c.obj
 .text._ff_pull_const_addr
                0x0000000010008338       0x4c CMakeFiles/telitHost.dir/mnt/LinuxApps/PicoSDK/pico-sdk/lib/tinyusb/src/common/tusb_fifo.c.obj
 .text._ff_pull_n
                0x0000000010008384      0x10c CMakeFiles/telitHost.dir/mnt/LinuxApps/PicoSDK/pico-sdk/lib/tinyusb/src/common/tusb_fifo.c.obj
 .text._tu_fifo_peek_n
                0x0000000010008490       0x5e CMakeFiles/telitHost.dir/mnt/LinuxApps/PicoSDK/pico-sdk/lib/tinyusb/src/common/tusb_fifo.c.obj
 .text._tu_fifo_read_n
                0x00000000100084ee       0x4e CMakeFiles/telitHost.dir/mnt/LinuxApps/PicoSDK/pico-sdk/lib/tinyusb/src/common/tusb_fifo.c.obj
 .text._ff_push_const_addr
                0x000000001000853c       0x40 CMakeFiles/telitHost.dir/mnt/LinuxApps/PicoSDK/pico-sdk/lib/tinyusb/src/common/tusb_fifo.c.obj
 .text._ff_push_n
                0x000000001000857c      0x108 CMakeFiles/telitHost.dir/mnt/LinuxApps/PicoSDK/pico-sdk/lib/tinyusb/src/common/tusb_fifo.c.obj
 .text._tu_fifo_write_n
                0x0000000010008684       0x9e CMakeFiles/telitHost.dir/mnt/LinuxApps/PicoSDK/pico-sdk/lib/tinyusb/src/common/tusb_fifo.c.obj
 .text.tu_fifo_config
                0x0000000010008722       0x72 CMakeFiles/telitHost.dir/mnt/LinuxApps/PicoSDK/pico-sdk/lib/tinyusb/src/common/tusb_fifo.c.obj
                0x0000000010008722                tu_fifo_config
 .text.tu_fifo_count
                0x0000000010008794       0x26 CMakeFiles/telitHost.dir/mnt/LinuxApps/PicoSDK/pico-sdk/lib/tinyusb/src/common/tusb_fifo.c.obj
                0x0000000010008794                tu_fifo_count
 .text.tu_fifo_empty
                0x00000000100087ba       0x10 CMakeFiles/telitHost.dir/mnt/LinuxApps/PicoSDK/pico-sdk/lib/tinyusb/src/common/tusb_fifo.c.obj
                0x00000000100087ba                tu_fifo_empty
 .text.tu_fifo_remaining
                0x00000000100087ca       0x20 CMakeFiles/telitHost.dir/mnt/LinuxApps/PicoSDK/pico-sdk/lib/tinyusb/src/common/tusb_fifo.c.obj
                0x00000000100087ca                tu_fifo_remaining
 .text.tu_fifo_read
                0x00000000100087ea       0x42 CMakeFiles/telitHost.dir/mnt/LinuxApps/PicoSDK/pico-sdk/lib/tinyusb/src/common/tusb_fifo.c.obj
                0x00000000100087ea                tu_fifo_read
 .text.tu_fifo_read_n
                0x000000001000882c        0xa CMakeFiles/telitHost.dir/mnt/LinuxApps/PicoSDK/pico-sdk/lib/tinyusb/src/common/tusb_fifo.c.obj
                0x000000001000882c                tu_fifo_read_n
 .text.tu_fifo_write
                0x0000000010008836       0x6c CMakeFiles/telitHost.dir/mnt/LinuxApps/PicoSDK/pico-sdk/lib/tinyusb/src/common/tusb_fifo.c.obj
                0x0000000010008836                tu_fifo_write
 .text.tu_fifo_write_n
                0x00000000100088a2        0xa CMakeFiles/telitHost.dir/mnt/LinuxApps/PicoSDK/pico-sdk/lib/tinyusb/src/common/tusb_fifo.c.obj
                0x00000000100088a2                tu_fifo_write_n
 .text.tu_fifo_clear
                0x00000000100088ac       0x4c CMakeFiles/telitHost.dir/mnt/LinuxApps/PicoSDK/pico-sdk/lib/tinyusb/src/common/tusb_fifo.c.obj
                0x00000000100088ac                tu_fifo_clear
 .text.tu_fifo_set_overwritable
                0x00000000100088f8       0x3c CMakeFiles/telitHost.dir/mnt/LinuxApps/PicoSDK/pico-sdk/lib/tinyusb/src/common/tusb_fifo.c.obj
                0x00000000100088f8                tu_fifo_set_overwritable
 .text._retrieve_unique_id_on_boot
                0x0000000010008934       0x10 CMakeFiles/telitHost.dir/mnt/LinuxApps/PicoSDK/pico-sdk/src/rp2_common/pico_unique_id/unique_id.c.obj
 .text.pico_get_unique_board_id_string
                0x0000000010008944       0x60 CMakeFiles/telitHost.dir/mnt/LinuxApps/PicoSDK/pico-sdk/src/rp2_common/pico_unique_id/unique_id.c.obj
                0x0000000010008944                pico_get_unique_board_id_string
 .text.flash_get_unique_id
                0x00000000100089a4       0x46 CMakeFiles/telitHost.dir/mnt/LinuxApps/PicoSDK/pico-sdk/src/rp2_common/hardware_flash/flash.c.obj
                0x00000000100089a4                flash_get_unique_id
 *fill*         0x00000000100089ea        0x2 
 .text          0x00000000100089ec       0x18 /usr/lib/gcc/arm-none-eabi/10.3.1/../../../arm-none-eabi/lib/thumb/v6-m/nofp/libg.a(lib_a-atoi.o)
                0x00000000100089ec                atoi
                0x00000000100089f8                _atoi_r
 .text          0x0000000010008a04       0x28 /usr/lib/gcc/arm-none-eabi/10.3.1/../../../arm-none-eabi/lib/thumb/v6-m/nofp/libg.a(lib_a-malloc.o)
                0x0000000010008a04                malloc
                0x0000000010008a18                free
 .text          0x0000000010008a2c      0x574 /usr/lib/gcc/arm-none-eabi/10.3.1/../../../arm-none-eabi/lib/thumb/v6-m/nofp/libg.a(lib_a-mallocr.o)
                0x0000000010008a2c                _malloc_r
 .text          0x0000000010008fa0        0x8 /usr/lib/gcc/arm-none-eabi/10.3.1/../../../arm-none-eabi/lib/thumb/v6-m/nofp/libg.a(lib_a-mlock.o)
                0x0000000010008fa0                __malloc_lock
                0x0000000010008fa4                __malloc_unlock
 .text          0x0000000010008fa8       0x24 /usr/lib/gcc/arm-none-eabi/10.3.1/../../../arm-none-eabi/lib/thumb/v6-m/nofp/libg.a(lib_a-sbrkr.o)
                0x0000000010008fa8                _sbrk_r
 .text          0x0000000010008fcc       0x4c /usr/lib/gcc/arm-none-eabi/10.3.1/../../../arm-none-eabi/lib/thumb/v6-m/nofp/libg.a(lib_a-strcat.o)
                0x0000000010008fcc                strcat
 .text          0x0000000010009018       0xc0 /usr/lib/gcc/arm-none-eabi/10.3.1/../../../arm-none-eabi/lib/thumb/v6-m/nofp/libg.a(lib_a-strchr.o)
                0x0000000010009018                strchr
 .text          0x00000000100090d8       0x10 /usr/lib/gcc/arm-none-eabi/10.3.1/../../../arm-none-eabi/lib/thumb/v6-m/nofp/libg.a(lib_a-strcpy.o)
                0x00000000100090d8                strcpy
 .text          0x00000000100090e8       0x5c /usr/lib/gcc/arm-none-eabi/10.3.1/../../../arm-none-eabi/lib/thumb/v6-m/nofp/libg.a(lib_a-strlen-stub.o)
                0x00000000100090e8                strlen
 .text          0x0000000010009144       0x6c /usr/lib/gcc/arm-none-eabi/10.3.1/../../../arm-none-eabi/lib/thumb/v6-m/nofp/libg.a(lib_a-strncpy.o)
                0x0000000010009144                strncpy
 .text          0x00000000100091b0      0x3fc /usr/lib/gcc/arm-none-eabi/10.3.1/../../../arm-none-eabi/lib/thumb/v6-m/nofp/libg.a(lib_a-strstr.o)
                0x0000000010009438                strstr
 .text          0x00000000100095ac      0x1b8 /usr/lib/gcc/arm-none-eabi/10.3.1/../../../arm-none-eabi/lib/thumb/v6-m/nofp/libg.a(lib_a-strtol.o)
                0x00000000100096f0                _strtol_r
                0x000000001000970c                strtol_l
                0x0000000010009738                strtol
 .text          0x0000000010009764        0xc /usr/lib/gcc/arm-none-eabi/10.3.1/../../../arm-none-eabi/lib/thumb/v6-m/nofp/libg.a(lib_a-errno.o)
                0x0000000010009764                __errno
 .text          0x0000000010009770      0x260 /usr/lib/gcc/arm-none-eabi/10.3.1/../../../arm-none-eabi/lib/thumb/v6-m/nofp/libg.a(lib_a-freer.o)
                0x0000000010009770                _malloc_trim_r
                0x000000001000980c                _free_r
 .text          0x00000000100099d0       0x48 /usr/lib/gcc/arm-none-eabi/10.3.1/../../../arm-none-eabi/lib/thumb/v6-m/nofp/libg.a(lib_a-memcmp.o)
                0x00000000100099d0                memcmp
 .text          0x0000000010009a18       0x24 /usr/lib/gcc/arm-none-eabi/10.3.1/../../../arm-none-eabi/lib/thumb/v6-m/nofp/libg.a(lib_a-strnlen.o)
                0x0000000010009a18                strnlen
 *(.fini)
 .fini          0x0000000010009a3c        0x4 /usr/lib/gcc/arm-none-eabi/10.3.1/thumb/v6-m/nofp/crti.o
                0x0000000010009a3c                _fini
 .fini.__stub   0x0000000010009a40       0x70 linker stubs
 *crtbegin.o(.ctors)
 *crtbegin?.o(.ctors)
 *(EXCLUDE_FILE(*crtend.o *crtend?.o) .ctors)
 *(SORT_BY_NAME(.ctors.*))
 *(.ctors)
 *crtbegin.o(.dtors)
 *crtbegin?.o(.dtors)
 *(EXCLUDE_FILE(*crtend.o *crtend?.o) .dtors)
 *(SORT_BY_NAME(.dtors.*))
 *(.dtors)
 *(.eh_frame*)
 .eh_frame      0x0000000010009ab0        0x0 /usr/lib/gcc/arm-none-eabi/10.3.1/thumb/v6-m/nofp/crtbegin.o
                0x0000000010009ab0                . = ALIGN (0x4)

.glue_7         0x0000000010009ab0        0x0
 .glue_7        0x0000000010009ab0        0x0 linker stubs

.glue_7t        0x0000000010009ab0        0x0
 .glue_7t       0x0000000010009ab0        0x0 linker stubs

.vfp11_veneer   0x0000000010009ab0        0x0
 .vfp11_veneer  0x0000000010009ab0        0x0 linker stubs

.v4_bx          0x0000000010009ab0        0x0
 .v4_bx         0x0000000010009ab0        0x0 linker stubs

.iplt           0x0000000010009ab0        0x0
 .iplt          0x0000000010009ab0        0x0 /usr/lib/gcc/arm-none-eabi/10.3.1/thumb/v6-m/nofp/crtbegin.o

.rodata         0x0000000010009ab0     0x2950
 *(EXCLUDE_FILE(*libm.a: *libc.a:*lib_a-mem*.o *libgcc.a:) .rodata*)
 .rodata.on_uart0_rx.str1.4
                0x0000000010009ab0        0x8 CMakeFiles/telitHost.dir/telitHost.c.obj
                                         0x10 (size before relaxing)
 .rodata.mqtt_read.str1.4
                0x0000000010009ab8      0x107 CMakeFiles/telitHost.dir/telitHost.c.obj
                                        0x10b (size before relaxing)
 *fill*         0x0000000010009bbf        0x1 
 .rodata.create_message.str1.4
                0x0000000010009bc0        0x3 CMakeFiles/telitHost.dir/telitHost.c.obj
 *fill*         0x0000000010009bc3        0x1 
 .rodata.send_message_to_telit.str1.4
                0x0000000010009bc4       0x1b CMakeFiles/telitHost.dir/telitHost.c.obj
 *fill*         0x0000000010009bdf        0x1 
 .rodata.mqtt_new_message_count.str1.4
                0x0000000010009be0       0x75 CMakeFiles/telitHost.dir/telitHost.c.obj
 *fill*         0x0000000010009c55        0x3 
 .rodata.mqtt_read_in_queue.str1.4
                0x0000000010009c58       0x84 CMakeFiles/telitHost.dir/telitHost.c.obj
                                         0x88 (size before relaxing)
 .rodata.mqtt_logout.str1.4
                0x0000000010009cdc       0x9e CMakeFiles/telitHost.dir/telitHost.c.obj
 *fill*         0x0000000010009d7a        0x2 
 .rodata.mqtt_enable_and_configure.str1.4
                0x0000000010009d7c      0x186 CMakeFiles/telitHost.dir/telitHost.c.obj
                                        0x18b (size before relaxing)
 *fill*         0x0000000010009f02        0x2 
 .rodata.mqtt_login.str1.4
                0x0000000010009f04       0xe0 CMakeFiles/telitHost.dir/telitHost.c.obj
 .rodata.mqtt_subscribe_topic.str1.4
                0x0000000010009fe4       0x9f CMakeFiles/telitHost.dir/telitHost.c.obj
 *fill*         0x000000001000a083        0x1 
 .rodata.mqtt_publish.str1.4
                0x000000001000a084       0xa2 CMakeFiles/telitHost.dir/telitHost.c.obj
                                         0xaa (size before relaxing)
 *fill*         0x000000001000a126        0x2 
 .rodata.activate_pdp.str1.4
                0x000000001000a128       0xad CMakeFiles/telitHost.dir/telitHost.c.obj
 *fill*         0x000000001000a1d5        0x3 
 .rodata.define_apn.str1.4
                0x000000001000a1d8       0x54 CMakeFiles/telitHost.dir/telitHost.c.obj
 .rodata.check_gprs_registration.str1.4
                0x000000001000a22c       0xa8 CMakeFiles/telitHost.dir/telitHost.c.obj
 .rodata.process_gprs_registration.str1.4
                0x000000001000a2d4       0xbe CMakeFiles/telitHost.dir/telitHost.c.obj
 *fill*         0x000000001000a392        0x2 
 .rodata.check_gprs_attach.str1.4
                0x000000001000a394       0x73 CMakeFiles/telitHost.dir/telitHost.c.obj
 *fill*         0x000000001000a407        0x1 
 .rodata.process_gprs_attach.str1.4
                0x000000001000a408       0x7c CMakeFiles/telitHost.dir/telitHost.c.obj
 .rodata.check_carrier_registration.str1.4
                0x000000001000a484       0x86 CMakeFiles/telitHost.dir/telitHost.c.obj
 *fill*         0x000000001000a50a        0x2 
 .rodata.check_signal_quality.str1.4
                0x000000001000a50c       0x6d CMakeFiles/telitHost.dir/telitHost.c.obj
 *fill*         0x000000001000a579        0x3 
 .rodata.process_mqtt_enable.str1.4
                0x000000001000a57c       0xb5 CMakeFiles/telitHost.dir/telitHost.c.obj
 *fill*         0x000000001000a631        0x3 
 .rodata.process_mqtt_login.str1.4
                0x000000001000a634       0xaa CMakeFiles/telitHost.dir/telitHost.c.obj
 *fill*         0x000000001000a6de        0x2 
 .rodata.process_carrier_registration.str1.4
                0x000000001000a6e0       0xcd CMakeFiles/telitHost.dir/telitHost.c.obj
 *fill*         0x000000001000a7ad        0x3 
 .rodata.process_signal_quailty.str1.4
                0x000000001000a7b0       0x77 CMakeFiles/telitHost.dir/telitHost.c.obj
 *fill*         0x000000001000a827        0x1 
 .rodata.telit_init_3g.str1.4
                0x000000001000a828       0xab CMakeFiles/telitHost.dir/telitHost.c.obj
 *fill*         0x000000001000a8d3        0x1 
 .rodata.main.str1.4
                0x000000001000a8d4      0x38e CMakeFiles/telitHost.dir/telitHost.c.obj
 *fill*         0x000000001000ac62        0x2 
 .rodata        0x000000001000ac64       0x10 CMakeFiles/telitHost.dir/telitHost.c.obj
 .rodata.spin_lock_claim_unused.str1.4
                0x000000001000ac74       0x1b CMakeFiles/telitHost.dir/mnt/LinuxApps/PicoSDK/pico-sdk/src/rp2_common/hardware_sync/sync.c.obj
 *fill*         0x000000001000ac8f        0x1 
 .rodata.repeating_timer_callback.str1.4
                0x000000001000ac90       0x50 CMakeFiles/telitHost.dir/mnt/LinuxApps/PicoSDK/pico-sdk/src/common/pico_time/time.c.obj
 .rodata.alarm_pool_dump_key.str1.4
                0x000000001000ace0       0x33 CMakeFiles/telitHost.dir/mnt/LinuxApps/PicoSDK/pico-sdk/src/common/pico_time/time.c.obj
 *fill*         0x000000001000ad13        0x1 
 .rodata.ph_add_child_node.str1.4
                0x000000001000ad14       0x9a CMakeFiles/telitHost.dir/mnt/LinuxApps/PicoSDK/pico-sdk/src/common/pico_time/time.c.obj
 *fill*         0x000000001000adae        0x2 
 .rodata.add_alarm_under_lock.str1.4
                0x000000001000adb0       0x28 CMakeFiles/telitHost.dir/mnt/LinuxApps/PicoSDK/pico-sdk/src/common/pico_time/time.c.obj
                                         0x2b (size before relaxing)
 .rodata.alarm_pool_alarm_callback.str1.4
                0x000000001000add8       0xea CMakeFiles/telitHost.dir/mnt/LinuxApps/PicoSDK/pico-sdk/src/common/pico_time/time.c.obj
 *fill*         0x000000001000aec2        0x2 
 .rodata.alarm_pool_get_default.str1.4
                0x000000001000aec4       0x21 CMakeFiles/telitHost.dir/mnt/LinuxApps/PicoSDK/pico-sdk/src/common/pico_time/time.c.obj
 *fill*         0x000000001000aee5        0x3 
 .rodata.alarm_pool_cancel_alarm.str1.4
                0x000000001000aee8       0x27 CMakeFiles/telitHost.dir/mnt/LinuxApps/PicoSDK/pico-sdk/src/common/pico_time/time.c.obj
 *fill*         0x000000001000af0f        0x1 
 .rodata.sleep_until.str1.4
                0x000000001000af10       0x4d CMakeFiles/telitHost.dir/mnt/LinuxApps/PicoSDK/pico-sdk/src/common/pico_time/time.c.obj
 *fill*         0x000000001000af5d        0x3 
 .rodata.__func__.1
                0x000000001000af60       0x18 CMakeFiles/telitHost.dir/mnt/LinuxApps/PicoSDK/pico-sdk/src/common/pico_time/time.c.obj
 .rodata.__func__.10
                0x000000001000af78       0x15 CMakeFiles/telitHost.dir/mnt/LinuxApps/PicoSDK/pico-sdk/src/common/pico_time/time.c.obj
 *fill*         0x000000001000af8d        0x3 
 .rodata.__func__.11
                0x000000001000af90       0x1a CMakeFiles/telitHost.dir/mnt/LinuxApps/PicoSDK/pico-sdk/src/common/pico_time/time.c.obj
 *fill*         0x000000001000afaa        0x2 
 .rodata.__func__.12
                0x000000001000afac        0xa CMakeFiles/telitHost.dir/mnt/LinuxApps/PicoSDK/pico-sdk/src/common/pico_time/time.c.obj
 *fill*         0x000000001000afb6        0x2 
 .rodata.__func__.3
                0x000000001000afb8       0x17 CMakeFiles/telitHost.dir/mnt/LinuxApps/PicoSDK/pico-sdk/src/common/pico_time/time.c.obj
 *fill*         0x000000001000afcf        0x1 
 .rodata.__func__.4
                0x000000001000afd0       0x12 CMakeFiles/telitHost.dir/mnt/LinuxApps/PicoSDK/pico-sdk/src/common/pico_time/time.c.obj
 *fill*         0x000000001000afe2        0x2 
 .rodata.__func__.5
                0x000000001000afe4        0xd CMakeFiles/telitHost.dir/mnt/LinuxApps/PicoSDK/pico-sdk/src/common/pico_time/time.c.obj
 *fill*         0x000000001000aff1        0x3 
 .rodata.__func__.6
                0x000000001000aff4       0x12 CMakeFiles/telitHost.dir/mnt/LinuxApps/PicoSDK/pico-sdk/src/common/pico_time/time.c.obj
 *fill*         0x000000001000b006        0x2 
 .rodata.__func__.7
                0x000000001000b008        0xf CMakeFiles/telitHost.dir/mnt/LinuxApps/PicoSDK/pico-sdk/src/common/pico_time/time.c.obj
 *fill*         0x000000001000b017        0x1 
 .rodata.__func__.8
                0x000000001000b018        0xc CMakeFiles/telitHost.dir/mnt/LinuxApps/PicoSDK/pico-sdk/src/common/pico_time/time.c.obj
 .rodata.__func__.9
                0x000000001000b024       0x15 CMakeFiles/telitHost.dir/mnt/LinuxApps/PicoSDK/pico-sdk/src/common/pico_time/time.c.obj
 *fill*         0x000000001000b039        0x3 
 .rodata.hardware_alarm_claim.str1.4
                0x000000001000b03c       0x22 CMakeFiles/telitHost.dir/mnt/LinuxApps/PicoSDK/pico-sdk/src/rp2_common/hardware_timer/timer.c.obj
 .rodata.busy_wait_us.str1.4
                0x000000001000b05e       0x66 CMakeFiles/telitHost.dir/mnt/LinuxApps/PicoSDK/pico-sdk/src/rp2_common/hardware_timer/timer.c.obj
 *fill*         0x000000001000b05e        0x2 
 .rodata.hardware_alarm_set_target.str1.4
                0x000000001000b060       0x6a CMakeFiles/telitHost.dir/mnt/LinuxApps/PicoSDK/pico-sdk/src/rp2_common/hardware_timer/timer.c.obj
 *fill*         0x000000001000b0ca        0x2 
 .rodata.__func__.0
                0x000000001000b0cc       0x1a CMakeFiles/telitHost.dir/mnt/LinuxApps/PicoSDK/pico-sdk/src/rp2_common/hardware_timer/timer.c.obj
 *fill*         0x000000001000b0e6        0x2 
 .rodata.__func__.1
                0x000000001000b0e8       0x15 CMakeFiles/telitHost.dir/mnt/LinuxApps/PicoSDK/pico-sdk/src/rp2_common/hardware_timer/timer.c.obj
 *fill*         0x000000001000b0fd        0x3 
 .rodata.str1.4
                0x000000001000b100       0x91 CMakeFiles/telitHost.dir/mnt/LinuxApps/PicoSDK/pico-sdk/src/common/pico_sync/mutex.c.obj
                                         0xf9 (size before relaxing)
 *fill*         0x000000001000b191        0x3 
 .rodata.__func__.1
                0x000000001000b194        0xb CMakeFiles/telitHost.dir/mnt/LinuxApps/PicoSDK/pico-sdk/src/common/pico_sync/mutex.c.obj
 *fill*         0x000000001000b19f        0x1 
 .rodata.__func__.3
                0x000000001000b1a0       0x18 CMakeFiles/telitHost.dir/mnt/LinuxApps/PicoSDK/pico-sdk/src/common/pico_sync/mutex.c.obj
 .rodata.__func__.4
                0x000000001000b1b8       0x15 CMakeFiles/telitHost.dir/mnt/LinuxApps/PicoSDK/pico-sdk/src/common/pico_sync/mutex.c.obj
 .rodata.ph_add_child_node.str1.4
                0x000000001000b1cd       0x9a CMakeFiles/telitHost.dir/mnt/LinuxApps/PicoSDK/pico-sdk/src/common/pico_util/pheap.c.obj
 *fill*         0x000000001000b1cd        0x3 
 .rodata.ph_remove_any_head.str1.4
                0x000000001000b1d0       0x94 CMakeFiles/telitHost.dir/mnt/LinuxApps/PicoSDK/pico-sdk/src/common/pico_util/pheap.c.obj
 .rodata.ph_remove_and_free_node.str1.4
                0x000000001000b264       0x26 CMakeFiles/telitHost.dir/mnt/LinuxApps/PicoSDK/pico-sdk/src/common/pico_util/pheap.c.obj
 *fill*         0x000000001000b28a        0x2 
 .rodata.__func__.0
                0x000000001000b28c       0x18 CMakeFiles/telitHost.dir/mnt/LinuxApps/PicoSDK/pico-sdk/src/common/pico_util/pheap.c.obj
 .rodata.__func__.1
                0x000000001000b2a4       0x13 CMakeFiles/telitHost.dir/mnt/LinuxApps/PicoSDK/pico-sdk/src/common/pico_util/pheap.c.obj
 *fill*         0x000000001000b2b7        0x1 
 .rodata.__func__.2
                0x000000001000b2b8       0x12 CMakeFiles/telitHost.dir/mnt/LinuxApps/PicoSDK/pico-sdk/src/common/pico_util/pheap.c.obj
 *fill*         0x000000001000b2ca        0x2 
 .rodata.__func__.3
                0x000000001000b2cc        0xc CMakeFiles/telitHost.dir/mnt/LinuxApps/PicoSDK/pico-sdk/src/common/pico_util/pheap.c.obj
 .rodata.__assert_func.str1.4
                0x000000001000b2d8       0x3f CMakeFiles/telitHost.dir/mnt/LinuxApps/PicoSDK/pico-sdk/src/rp2_common/pico_runtime/runtime.c.obj
                                         0x43 (size before relaxing)
 *fill*         0x000000001000b317        0x1 
 .rodata.runtime_init.str1.4
                0x000000001000b318       0x66 CMakeFiles/telitHost.dir/mnt/LinuxApps/PicoSDK/pico-sdk/src/rp2_common/pico_runtime/runtime.c.obj
 *fill*         0x000000001000b37e        0x2 
 .rodata.panic.str1.4
                0x000000001000b380       0x10 CMakeFiles/telitHost.dir/mnt/LinuxApps/PicoSDK/pico-sdk/src/rp2_common/pico_runtime/runtime.c.obj
                                         0x12 (size before relaxing)
 .rodata.__func__.1
                0x000000001000b390        0xd CMakeFiles/telitHost.dir/mnt/LinuxApps/PicoSDK/pico-sdk/src/rp2_common/pico_runtime/runtime.c.obj
 *fill*         0x000000001000b39d        0x3 
 .rodata.clock_configure.str1.4
                0x000000001000b3a0       0x5c CMakeFiles/telitHost.dir/mnt/LinuxApps/PicoSDK/pico-sdk/src/rp2_common/hardware_clocks/clocks.c.obj
 .rodata.__func__.1
                0x000000001000b3fc       0x10 CMakeFiles/telitHost.dir/mnt/LinuxApps/PicoSDK/pico-sdk/src/rp2_common/hardware_clocks/clocks.c.obj
 .rodata.make_branch.str1.4
                0x000000001000b40c       0x52 CMakeFiles/telitHost.dir/mnt/LinuxApps/PicoSDK/pico-sdk/src/rp2_common/hardware_irq/irq.c.obj
 *fill*         0x000000001000b45e        0x2 
 .rodata.irq_set_exclusive_handler.str1.4
                0x000000001000b460       0x36 CMakeFiles/telitHost.dir/mnt/LinuxApps/PicoSDK/pico-sdk/src/rp2_common/hardware_irq/irq.c.obj
 *fill*         0x000000001000b496        0x2 
 .rodata.irq_add_shared_handler.str1.4
                0x000000001000b498       0xd9 CMakeFiles/telitHost.dir/mnt/LinuxApps/PicoSDK/pico-sdk/src/rp2_common/hardware_irq/irq.c.obj
 *fill*         0x000000001000b571        0x3 
 .rodata.irq_remove_handler.str1.4
                0x000000001000b574       0x2a CMakeFiles/telitHost.dir/mnt/LinuxApps/PicoSDK/pico-sdk/src/rp2_common/hardware_irq/irq.c.obj
 *fill*         0x000000001000b59e        0x2 
 .rodata.irq_add_tail_to_free_list.str1.4
                0x000000001000b5a0       0x32 CMakeFiles/telitHost.dir/mnt/LinuxApps/PicoSDK/pico-sdk/src/rp2_common/hardware_irq/irq.c.obj
                                         0x3a (size before relaxing)
 *fill*         0x000000001000b5d2        0x2 
 .rodata.__func__.0
                0x000000001000b5d4       0x1a CMakeFiles/telitHost.dir/mnt/LinuxApps/PicoSDK/pico-sdk/src/rp2_common/hardware_irq/irq.c.obj
 *fill*         0x000000001000b5ee        0x2 
 .rodata.__func__.1
                0x000000001000b5f0       0x17 CMakeFiles/telitHost.dir/mnt/LinuxApps/PicoSDK/pico-sdk/src/rp2_common/hardware_irq/irq.c.obj
 *fill*         0x000000001000b607        0x1 
 .rodata.__func__.2
                0x000000001000b608       0x13 CMakeFiles/telitHost.dir/mnt/LinuxApps/PicoSDK/pico-sdk/src/rp2_common/hardware_irq/irq.c.obj
 *fill*         0x000000001000b61b        0x1 
 .rodata.__func__.3
                0x000000001000b61c        0xc CMakeFiles/telitHost.dir/mnt/LinuxApps/PicoSDK/pico-sdk/src/rp2_common/hardware_irq/irq.c.obj
 .rodata.__func__.4
                0x000000001000b628        0xf CMakeFiles/telitHost.dir/mnt/LinuxApps/PicoSDK/pico-sdk/src/rp2_common/hardware_irq/irq.c.obj
 *fill*         0x000000001000b637        0x1 
 .rodata.__func__.6
                0x000000001000b638       0x1a CMakeFiles/telitHost.dir/mnt/LinuxApps/PicoSDK/pico-sdk/src/rp2_common/hardware_irq/irq.c.obj
 *fill*         0x000000001000b652        0x2 
 .rodata.pll_init.str1.4
                0x000000001000b654       0xdf CMakeFiles/telitHost.dir/mnt/LinuxApps/PicoSDK/pico-sdk/src/rp2_common/hardware_pll/pll.c.obj
 *fill*         0x000000001000b733        0x1 
 .rodata.__func__.0
                0x000000001000b734        0x9 CMakeFiles/telitHost.dir/mnt/LinuxApps/PicoSDK/pico-sdk/src/rp2_common/hardware_pll/pll.c.obj
 *fill*         0x000000001000b73d        0x3 
 .rodata._ftoa.str1.4
                0x000000001000b740       0x15 CMakeFiles/telitHost.dir/mnt/LinuxApps/PicoSDK/pico-sdk/src/rp2_common/pico_printf/printf.c.obj
 *fill*         0x000000001000b755        0x3 
 .rodata._vsnprintf
                0x000000001000b758      0x1e0 CMakeFiles/telitHost.dir/mnt/LinuxApps/PicoSDK/pico-sdk/src/rp2_common/pico_printf/printf.c.obj
 .rodata.pow10.0
                0x000000001000b938       0x50 CMakeFiles/telitHost.dir/mnt/LinuxApps/PicoSDK/pico-sdk/src/rp2_common/pico_printf/printf.c.obj
 .rodata.__aeabi_double_init.str1.4
                0x000000001000b988       0xad CMakeFiles/telitHost.dir/mnt/LinuxApps/PicoSDK/pico-sdk/src/rp2_common/pico_double/double_init_rom.c.obj
 *fill*         0x000000001000ba35        0x3 
 .rodata.__func__.0
                0x000000001000ba38       0x14 CMakeFiles/telitHost.dir/mnt/LinuxApps/PicoSDK/pico-sdk/src/rp2_common/pico_double/double_init_rom.c.obj
 .rodata.__aeabi_float_init.str1.4
                0x000000001000ba4c       0x7f CMakeFiles/telitHost.dir/mnt/LinuxApps/PicoSDK/pico-sdk/src/rp2_common/pico_float/float_init_rom.c.obj
                                         0x83 (size before relaxing)
 *fill*         0x000000001000bacb        0x1 
 .rodata.__func__.0
                0x000000001000bacc       0x13 CMakeFiles/telitHost.dir/mnt/LinuxApps/PicoSDK/pico-sdk/src/rp2_common/pico_float/float_init_rom.c.obj
 *fill*         0x000000001000badf        0x1 
 .rodata.__wrap_malloc.str1.4
                0x000000001000bae0        0xe CMakeFiles/telitHost.dir/mnt/LinuxApps/PicoSDK/pico-sdk/src/rp2_common/pico_malloc/pico_malloc.c.obj
 *fill*         0x000000001000baee        0x2 
 .rodata.str1.4
                0x000000001000baf0       0x40 CMakeFiles/telitHost.dir/mnt/LinuxApps/PicoSDK/pico-sdk/src/rp2_common/pico_standard_link/binary_info.c.obj
 .rodata.__bi_44
                0x000000001000bb30        0xc CMakeFiles/telitHost.dir/mnt/LinuxApps/PicoSDK/pico-sdk/src/rp2_common/pico_standard_link/binary_info.c.obj
 .rodata.__bi_75
                0x000000001000bb3c        0xc CMakeFiles/telitHost.dir/mnt/LinuxApps/PicoSDK/pico-sdk/src/rp2_common/pico_standard_link/binary_info.c.obj
 .rodata.__bi_81
                0x000000001000bb48        0xc CMakeFiles/telitHost.dir/mnt/LinuxApps/PicoSDK/pico-sdk/src/rp2_common/pico_standard_link/binary_info.c.obj
 .rodata.__wrap_getchar.str1.4
                0x000000001000bb54       0x4e CMakeFiles/telitHost.dir/mnt/LinuxApps/PicoSDK/pico-sdk/src/rp2_common/pico_stdio/stdio.c.obj
 .rodata.getchar_timeout_us.str1.4
                0x000000001000bba2       0x6b CMakeFiles/telitHost.dir/mnt/LinuxApps/PicoSDK/pico-sdk/src/rp2_common/pico_stdio/stdio.c.obj
 *fill*         0x000000001000bba2        0x2 
 .rodata.__func__.0
                0x000000001000bba4       0x15 CMakeFiles/telitHost.dir/mnt/LinuxApps/PicoSDK/pico-sdk/src/rp2_common/pico_stdio/stdio.c.obj
 *fill*         0x000000001000bbb9        0x3 
 .rodata.__func__.1
                0x000000001000bbbc       0x13 CMakeFiles/telitHost.dir/mnt/LinuxApps/PicoSDK/pico-sdk/src/rp2_common/pico_stdio/stdio.c.obj
 *fill*         0x000000001000bbcf        0x1 
 .rodata.crlf_str.3
                0x000000001000bbd0        0x2 CMakeFiles/telitHost.dir/mnt/LinuxApps/PicoSDK/pico-sdk/src/rp2_common/pico_stdio/stdio.c.obj
 *fill*         0x000000001000bbd2        0x2 
 .rodata._resetd_driver
                0x000000001000bbd4       0x18 CMakeFiles/telitHost.dir/mnt/LinuxApps/PicoSDK/pico-sdk/src/rp2_common/pico_stdio_usb/reset_interface.c.obj
 .rodata.stdio_usb_init.str1.4
                0x000000001000bbec       0x66 CMakeFiles/telitHost.dir/mnt/LinuxApps/PicoSDK/pico-sdk/src/rp2_common/pico_stdio_usb/stdio_usb.c.obj
 .rodata.str1.4
                0x000000001000bbec       0x13 CMakeFiles/telitHost.dir/mnt/LinuxApps/PicoSDK/pico-sdk/src/rp2_common/pico_stdio_usb/stdio_usb.c.obj
 *fill*         0x000000001000bbff        0x1 
 .rodata.__bi_93.1
                0x000000001000bc00        0xc CMakeFiles/telitHost.dir/mnt/LinuxApps/PicoSDK/pico-sdk/src/rp2_common/pico_stdio_usb/stdio_usb.c.obj
 .rodata.__func__.0
                0x000000001000bc0c       0x15 CMakeFiles/telitHost.dir/mnt/LinuxApps/PicoSDK/pico-sdk/src/rp2_common/pico_stdio_usb/stdio_usb.c.obj
 *fill*         0x000000001000bc21        0x3 
 .rodata.str1.4
                0x000000001000bc24       0x2a CMakeFiles/telitHost.dir/mnt/LinuxApps/PicoSDK/pico-sdk/src/rp2_common/pico_stdio_usb/stdio_usb_descriptors.c.obj
 *fill*         0x000000001000bc4e        0x2 
 .rodata.usbd_desc_cfg
                0x000000001000bc50       0x54 CMakeFiles/telitHost.dir/mnt/LinuxApps/PicoSDK/pico-sdk/src/rp2_common/pico_stdio_usb/stdio_usb_descriptors.c.obj
 .rodata.usbd_desc_device
                0x000000001000bca4       0x12 CMakeFiles/telitHost.dir/mnt/LinuxApps/PicoSDK/pico-sdk/src/rp2_common/pico_stdio_usb/stdio_usb_descriptors.c.obj
 *fill*         0x000000001000bcb6        0x2 
 .rodata.usbd_desc_str
                0x000000001000bcb8       0x18 CMakeFiles/telitHost.dir/mnt/LinuxApps/PicoSDK/pico-sdk/src/rp2_common/pico_stdio_usb/stdio_usb_descriptors.c.obj
 .rodata._hw_endpoint_alloc.str1.4
                0x000000001000bcd0       0xbd CMakeFiles/telitHost.dir/mnt/LinuxApps/PicoSDK/pico-sdk/lib/tinyusb/src/portable/raspberrypi/rp2040/dcd_rp2040.c.obj
 *fill*         0x000000001000bd8d        0x3 
 .rodata.dcd_rp2040_irq.str1.4
                0x000000001000bd90       0x14 CMakeFiles/telitHost.dir/mnt/LinuxApps/PicoSDK/pico-sdk/lib/tinyusb/src/portable/raspberrypi/rp2040/dcd_rp2040.c.obj
 .rodata.dcd_int_enable.str1.4
                0x000000001000bda4        0xc CMakeFiles/telitHost.dir/mnt/LinuxApps/PicoSDK/pico-sdk/lib/tinyusb/src/portable/raspberrypi/rp2040/dcd_rp2040.c.obj
 .rodata.__func__.0
                0x000000001000bdb0        0xe CMakeFiles/telitHost.dir/mnt/LinuxApps/PicoSDK/pico-sdk/lib/tinyusb/src/portable/raspberrypi/rp2040/dcd_rp2040.c.obj
 *fill*         0x000000001000bdbe        0x2 
 .rodata.__func__.1
                0x000000001000bdc0        0xe CMakeFiles/telitHost.dir/mnt/LinuxApps/PicoSDK/pico-sdk/lib/tinyusb/src/portable/raspberrypi/rp2040/dcd_rp2040.c.obj
 *fill*         0x000000001000bdce        0x2 
 .rodata.__func__.3
                0x000000001000bdd0       0x10 CMakeFiles/telitHost.dir/mnt/LinuxApps/PicoSDK/pico-sdk/lib/tinyusb/src/portable/raspberrypi/rp2040/dcd_rp2040.c.obj
 .rodata.__func__.5
                0x000000001000bde0        0xf CMakeFiles/telitHost.dir/mnt/LinuxApps/PicoSDK/pico-sdk/lib/tinyusb/src/portable/raspberrypi/rp2040/dcd_rp2040.c.obj
 *fill*         0x000000001000bdef        0x1 
 .rodata.__func__.6
                0x000000001000bdf0       0x13 CMakeFiles/telitHost.dir/mnt/LinuxApps/PicoSDK/pico-sdk/lib/tinyusb/src/portable/raspberrypi/rp2040/dcd_rp2040.c.obj
 *fill*         0x000000001000be03        0x1 
 .rodata.__func__.7
                0x000000001000be04        0x9 CMakeFiles/telitHost.dir/mnt/LinuxApps/PicoSDK/pico-sdk/lib/tinyusb/src/portable/raspberrypi/rp2040/dcd_rp2040.c.obj
 *fill*         0x000000001000be0d        0x3 
 .rodata.sync_ep_buffer.str1.4
                0x000000001000be10       0x99 CMakeFiles/telitHost.dir/mnt/LinuxApps/PicoSDK/pico-sdk/lib/tinyusb/src/portable/raspberrypi/rp2040/rp2040_usb.c.obj
 *fill*         0x000000001000bea9        0x3 
 .rodata._hw_endpoint_buffer_control_update32.str1.4
                0x000000001000beac       0x1f CMakeFiles/telitHost.dir/mnt/LinuxApps/PicoSDK/pico-sdk/lib/tinyusb/src/portable/raspberrypi/rp2040/rp2040_usb.c.obj
 *fill*         0x000000001000becb        0x1 
 .rodata.hw_endpoint_xfer_start.str1.4
                0x000000001000becc       0x38 CMakeFiles/telitHost.dir/mnt/LinuxApps/PicoSDK/pico-sdk/lib/tinyusb/src/portable/raspberrypi/rp2040/rp2040_usb.c.obj
 .rodata.hw_endpoint_xfer_continue.str1.4
                0x000000001000bf04       0x29 CMakeFiles/telitHost.dir/mnt/LinuxApps/PicoSDK/pico-sdk/lib/tinyusb/src/portable/raspberrypi/rp2040/rp2040_usb.c.obj
 *fill*         0x000000001000bf2d        0x3 
 .rodata.str1.4
                0x000000001000bf30        0x7 CMakeFiles/telitHost.dir/mnt/LinuxApps/PicoSDK/pico-sdk/lib/tinyusb/src/portable/raspberrypi/rp2040/rp2040_usb.c.obj
 *fill*         0x000000001000bf37        0x1 
 .rodata.__func__.0
                0x000000001000bf38        0xf CMakeFiles/telitHost.dir/mnt/LinuxApps/PicoSDK/pico-sdk/lib/tinyusb/src/portable/raspberrypi/rp2040/rp2040_usb.c.obj
 *fill*         0x000000001000bf47        0x1 
 .rodata.process_set_config.str1.4
                0x000000001000bf48       0x17 CMakeFiles/telitHost.dir/mnt/LinuxApps/PicoSDK/pico-sdk/lib/tinyusb/src/device/usbd.c.obj
 *fill*         0x000000001000bf5f        0x1 
 .rodata.process_get_descriptor
                0x000000001000bf60       0x40 CMakeFiles/telitHost.dir/mnt/LinuxApps/PicoSDK/pico-sdk/lib/tinyusb/src/device/usbd.c.obj
 .rodata.process_control_request
                0x000000001000bfa0       0x28 CMakeFiles/telitHost.dir/mnt/LinuxApps/PicoSDK/pico-sdk/lib/tinyusb/src/device/usbd.c.obj
 .rodata.tud_task
                0x000000001000bfc8       0x24 CMakeFiles/telitHost.dir/mnt/LinuxApps/PicoSDK/pico-sdk/lib/tinyusb/src/device/usbd.c.obj
 .rodata.__func__.2
                0x000000001000bfec        0xf CMakeFiles/telitHost.dir/mnt/LinuxApps/PicoSDK/pico-sdk/lib/tinyusb/src/device/usbd.c.obj
 *fill*         0x000000001000bffb        0x1 
 .rodata.__func__.3
                0x000000001000bffc        0xf CMakeFiles/telitHost.dir/mnt/LinuxApps/PicoSDK/pico-sdk/lib/tinyusb/src/device/usbd.c.obj
 *fill*         0x000000001000c00b        0x1 
 .rodata.__func__.4
                0x000000001000c00c       0x14 CMakeFiles/telitHost.dir/mnt/LinuxApps/PicoSDK/pico-sdk/lib/tinyusb/src/device/usbd.c.obj
 .rodata.__func__.5
                0x000000001000c020       0x10 CMakeFiles/telitHost.dir/mnt/LinuxApps/PicoSDK/pico-sdk/lib/tinyusb/src/device/usbd.c.obj
 .rodata.__func__.6
                0x000000001000c030       0x17 CMakeFiles/telitHost.dir/mnt/LinuxApps/PicoSDK/pico-sdk/lib/tinyusb/src/device/usbd.c.obj
 *fill*         0x000000001000c047        0x1 
 .rodata.__func__.7
                0x000000001000c048       0x13 CMakeFiles/telitHost.dir/mnt/LinuxApps/PicoSDK/pico-sdk/lib/tinyusb/src/device/usbd.c.obj
 *fill*         0x000000001000c05b        0x1 
 .rodata.__func__.8
                0x000000001000c05c       0x18 CMakeFiles/telitHost.dir/mnt/LinuxApps/PicoSDK/pico-sdk/lib/tinyusb/src/device/usbd.c.obj
 .rodata.__func__.9
                0x000000001000c074        0x9 CMakeFiles/telitHost.dir/mnt/LinuxApps/PicoSDK/pico-sdk/lib/tinyusb/src/device/usbd.c.obj
 *fill*         0x000000001000c07d        0x3 
 .rodata._usbd_driver
                0x000000001000c080       0x18 CMakeFiles/telitHost.dir/mnt/LinuxApps/PicoSDK/pico-sdk/lib/tinyusb/src/device/usbd.c.obj
 .rodata.tud_control_xfer.str1.4
                0x000000001000c098       0x17 CMakeFiles/telitHost.dir/mnt/LinuxApps/PicoSDK/pico-sdk/lib/tinyusb/src/device/usbd_control.c.obj
 .rodata.__func__.0
                0x000000001000c098       0x15 CMakeFiles/telitHost.dir/mnt/LinuxApps/PicoSDK/pico-sdk/lib/tinyusb/src/device/usbd_control.c.obj
 *fill*         0x000000001000c0ad        0x3 
 .rodata.__func__.1
                0x000000001000c0b0       0x11 CMakeFiles/telitHost.dir/mnt/LinuxApps/PicoSDK/pico-sdk/lib/tinyusb/src/device/usbd_control.c.obj
 .rodata.tud_cdc_n_write_flush.str1.4
                0x000000001000c0c1       0x17 CMakeFiles/telitHost.dir/mnt/LinuxApps/PicoSDK/pico-sdk/lib/tinyusb/src/class/cdc/cdc_device.c.obj
 *fill*         0x000000001000c0c1        0x3 
 .rodata.__func__.0
                0x000000001000c0c4        0xd CMakeFiles/telitHost.dir/mnt/LinuxApps/PicoSDK/pico-sdk/lib/tinyusb/src/class/cdc/cdc_device.c.obj
 *fill*         0x000000001000c0d1        0x3 
 .rodata.__func__.1
                0x000000001000c0d4        0xa CMakeFiles/telitHost.dir/mnt/LinuxApps/PicoSDK/pico-sdk/lib/tinyusb/src/class/cdc/cdc_device.c.obj
 *fill*         0x000000001000c0de        0x2 
 .rodata.__func__.2
                0x000000001000c0e0       0x16 CMakeFiles/telitHost.dir/mnt/LinuxApps/PicoSDK/pico-sdk/lib/tinyusb/src/class/cdc/cdc_device.c.obj
 .rodata.tusb_init.str1.4
                0x000000001000c0f6       0x17 CMakeFiles/telitHost.dir/mnt/LinuxApps/PicoSDK/pico-sdk/lib/tinyusb/src/tusb.c.obj
 *fill*         0x000000001000c0f6        0x2 
 .rodata.__func__.0
                0x000000001000c0f8       0x11 CMakeFiles/telitHost.dir/mnt/LinuxApps/PicoSDK/pico-sdk/lib/tinyusb/src/tusb.c.obj
 *fill*         0x000000001000c109        0x3 
 .rodata.__func__.1
                0x000000001000c10c        0xa CMakeFiles/telitHost.dir/mnt/LinuxApps/PicoSDK/pico-sdk/lib/tinyusb/src/tusb.c.obj
 *fill*         0x000000001000c116        0x2 
 .rodata.pico_get_unique_board_id_string.str1.4
                0x000000001000c118       0x52 CMakeFiles/telitHost.dir/mnt/LinuxApps/PicoSDK/pico-sdk/src/rp2_common/pico_unique_id/unique_id.c.obj
 *fill*         0x000000001000c16a        0x2 
 .rodata.__func__.0
                0x000000001000c16c       0x20 CMakeFiles/telitHost.dir/mnt/LinuxApps/PicoSDK/pico-sdk/src/rp2_common/pico_unique_id/unique_id.c.obj
 .rodata.str1.4
                0x000000001000c18c      0x15e CMakeFiles/telitHost.dir/mnt/LinuxApps/PicoSDK/pico-sdk/src/rp2_common/hardware_flash/flash.c.obj
 *fill*         0x000000001000c2ea        0x2 
 .rodata.__func__.0
                0x000000001000c2ec        0xd CMakeFiles/telitHost.dir/mnt/LinuxApps/PicoSDK/pico-sdk/src/rp2_common/hardware_flash/flash.c.obj
 *fill*         0x000000001000c2f9        0x3 
 .rodata        0x000000001000c2fc      0x101 /usr/lib/gcc/arm-none-eabi/10.3.1/../../../arm-none-eabi/lib/thumb/v6-m/nofp/libg.a(lib_a-ctype_.o)
                0x000000001000c2fc                _ctype_
                0x000000001000c400                . = ALIGN (0x4)
 *fill*         0x000000001000c3fd        0x3 
 *(SORT_BY_ALIGNMENT(SORT_BY_NAME(.flashdata*)))
                0x000000001000c400                . = ALIGN (0x4)

.rel.dyn        0x000000001000c400        0x0
 .rel.iplt      0x000000001000c400        0x0 /usr/lib/gcc/arm-none-eabi/10.3.1/thumb/v6-m/nofp/crtbegin.o

.ARM.extab
 *(.ARM.extab* .gnu.linkonce.armextab.*)
                0x000000001000c400                __exidx_start = .

.ARM.exidx
 *(.ARM.exidx* .gnu.linkonce.armexidx.*)
                0x000000001000c400                __exidx_end = .
                0x000000001000c400                . = ALIGN (0x4)
                0x000000001000c400                __binary_info_start = .

.binary_info    0x000000001000c400       0x20
 *(.binary_info.keep.*)
 .binary_info.keep.__bi_ptr22
                0x000000001000c400        0x4 CMakeFiles/telitHost.dir/mnt/LinuxApps/PicoSDK/pico-sdk/src/rp2_common/pico_standard_link/binary_info.c.obj
 .binary_info.keep.__bi_ptr30
                0x000000001000c404        0x4 CMakeFiles/telitHost.dir/mnt/LinuxApps/PicoSDK/pico-sdk/src/rp2_common/pico_standard_link/binary_info.c.obj
 .binary_info.keep.__bi_ptr38
                0x000000001000c408        0x4 CMakeFiles/telitHost.dir/mnt/LinuxApps/PicoSDK/pico-sdk/src/rp2_common/pico_standard_link/binary_info.c.obj
 .binary_info.keep.__bi_ptr44
                0x000000001000c40c        0x4 CMakeFiles/telitHost.dir/mnt/LinuxApps/PicoSDK/pico-sdk/src/rp2_common/pico_standard_link/binary_info.c.obj
 .binary_info.keep.__bi_ptr50
                0x000000001000c410        0x4 CMakeFiles/telitHost.dir/mnt/LinuxApps/PicoSDK/pico-sdk/src/rp2_common/pico_standard_link/binary_info.c.obj
 .binary_info.keep.__bi_ptr75
                0x000000001000c414        0x4 CMakeFiles/telitHost.dir/mnt/LinuxApps/PicoSDK/pico-sdk/src/rp2_common/pico_standard_link/binary_info.c.obj
 .binary_info.keep.__bi_ptr81
                0x000000001000c418        0x4 CMakeFiles/telitHost.dir/mnt/LinuxApps/PicoSDK/pico-sdk/src/rp2_common/pico_standard_link/binary_info.c.obj
 *(.binary_info.*)
 .binary_info.__bi_ptr93
                0x000000001000c41c        0x4 CMakeFiles/telitHost.dir/mnt/LinuxApps/PicoSDK/pico-sdk/src/rp2_common/pico_stdio_usb/stdio_usb.c.obj
                0x000000001000c420                __binary_info_end = .
                0x000000001000c420                . = ALIGN (0x4)
                0x000000001000c420                __etext = .

.ram_vector_table
                0x0000000020000000       0xc0
 *(.ram_vector_table)
 .ram_vector_table
                0x0000000020000000       0xc0 CMakeFiles/telitHost.dir/mnt/LinuxApps/PicoSDK/pico-sdk/src/rp2_common/pico_runtime/runtime.c.obj
                0x0000000020000000                ram_vector_table

.data           0x00000000200000c0      0xca0 load address 0x000000001000c420
                0x00000000200000c0                __data_start__ = .
 *(vtable)
 *(.time_critical*)
 .time_critical.mutex_enter_blocking
                0x00000000200000c0       0x48 CMakeFiles/telitHost.dir/mnt/LinuxApps/PicoSDK/pico-sdk/src/common/pico_sync/mutex.c.obj
                0x00000000200000c0                mutex_enter_blocking
 .time_critical.mutex_try_enter
                0x0000000020000108       0x46 CMakeFiles/telitHost.dir/mnt/LinuxApps/PicoSDK/pico-sdk/src/common/pico_sync/mutex.c.obj
                0x0000000020000108                mutex_try_enter
 *fill*         0x000000002000014e        0x2 
 .time_critical.mutex_enter_block_until
                0x0000000020000150       0x8c CMakeFiles/telitHost.dir/mnt/LinuxApps/PicoSDK/pico-sdk/src/common/pico_sync/mutex.c.obj
                0x0000000020000150                mutex_enter_block_until
 .time_critical.mutex_enter_timeout_ms
                0x00000000200001dc       0x74 CMakeFiles/telitHost.dir/mnt/LinuxApps/PicoSDK/pico-sdk/src/common/pico_sync/mutex.c.obj
                0x00000000200001dc                mutex_enter_timeout_ms
 .time_critical.mutex_exit
                0x0000000020000250       0x4c CMakeFiles/telitHost.dir/mnt/LinuxApps/PicoSDK/pico-sdk/src/common/pico_sync/mutex.c.obj
                0x0000000020000250                mutex_exit
 .time_critical.flash_init_boot2_copyout
                0x000000002000029c       0x30 CMakeFiles/telitHost.dir/mnt/LinuxApps/PicoSDK/pico-sdk/src/rp2_common/hardware_flash/flash.c.obj
 .time_critical.flash_enable_xip_via_boot2
                0x00000000200002cc       0x10 CMakeFiles/telitHost.dir/mnt/LinuxApps/PicoSDK/pico-sdk/src/rp2_common/hardware_flash/flash.c.obj
 .time_critical.flash_cs_force
                0x00000000200002dc       0x28 CMakeFiles/telitHost.dir/mnt/LinuxApps/PicoSDK/pico-sdk/src/rp2_common/hardware_flash/flash.c.obj
 .time_critical.flash_do_cmd
                0x0000000020000304       0xd8 CMakeFiles/telitHost.dir/mnt/LinuxApps/PicoSDK/pico-sdk/src/rp2_common/hardware_flash/flash.c.obj
                0x0000000020000304                flash_do_cmd
 *(.text*)
 .text          0x00000000200003dc        0x4 /usr/lib/gcc/arm-none-eabi/10.3.1/thumb/v6-m/nofp/libgcc.a(_dvmd_tls.o)
                0x00000000200003dc                __aeabi_ldiv0
                0x00000000200003dc                __aeabi_idiv0
 .text.__stub   0x00000000200003e0       0x40 linker stubs
                0x0000000020000420                . = ALIGN (0x4)
 *(.rodata*)
                0x0000000020000420                . = ALIGN (0x4)
 *(.data*)
 .data.striped_spin_lock_num
                0x0000000020000420        0x1 CMakeFiles/telitHost.dir/mnt/LinuxApps/PicoSDK/pico-sdk/src/rp2_common/hardware_sync/sync.c.obj
 *fill*         0x0000000020000421        0x3 
 .data.default_alarm_pool
                0x0000000020000424       0x18 CMakeFiles/telitHost.dir/mnt/LinuxApps/PicoSDK/pico-sdk/src/common/pico_time/time.c.obj
 .data.default_alarm_pool_heap
                0x000000002000043c       0x10 CMakeFiles/telitHost.dir/mnt/LinuxApps/PicoSDK/pico-sdk/src/common/pico_time/time.c.obj
 .data          0x000000002000044c       0x48 CMakeFiles/telitHost.dir/mnt/LinuxApps/PicoSDK/pico-sdk/src/rp2_common/hardware_irq/irq_handler_chain.S.obj
                0x000000002000044c                irq_handler_chain_slots
                0x000000002000047c                irq_handler_chain_first_slot
                0x0000000020000486                irq_handler_chain_remove_tail
 *fill*         0x0000000020000494        0xc 
 .data.aeabi_bits_funcs
                0x00000000200004a0       0x10 CMakeFiles/telitHost.dir/mnt/LinuxApps/PicoSDK/pico-sdk/src/rp2_common/pico_bit_ops/bit_ops_aeabi.S.obj
                0x00000000200004a0                aeabi_bits_funcs
                0x00000000200004b0                aeabi_bits_funcs_end
 .data.aeabi_mem_funcs
                0x00000000200004b0       0x10 CMakeFiles/telitHost.dir/mnt/LinuxApps/PicoSDK/pico-sdk/src/rp2_common/pico_mem_ops/mem_ops_aeabi.S.obj
                0x00000000200004b0                aeabi_mem_funcs
                0x00000000200004c0                aeabi_mem_funcs_end
 .data.stdio_usb
                0x00000000200004c0       0x14 CMakeFiles/telitHost.dir/mnt/LinuxApps/PicoSDK/pico-sdk/src/rp2_common/pico_stdio_usb/stdio_usb.c.obj
                0x00000000200004c0                stdio_usb
 .data.ep_dir_string
                0x00000000200004d4        0x8 CMakeFiles/telitHost.dir/mnt/LinuxApps/PicoSDK/pico-sdk/lib/tinyusb/src/portable/raspberrypi/rp2040/rp2040_usb.c.obj
                0x00000000200004d4                ep_dir_string
 .data._usbd_qdef
                0x00000000200004dc       0x24 CMakeFiles/telitHost.dir/mnt/LinuxApps/PicoSDK/pico-sdk/lib/tinyusb/src/device/usbd.c.obj
                0x00000000200004dc                _usbd_qdef
 .data          0x0000000020000500      0x430 /usr/lib/gcc/arm-none-eabi/10.3.1/../../../arm-none-eabi/lib/thumb/v6-m/nofp/libg.a(lib_a-impure.o)
                0x0000000020000500                _impure_ptr
 .data          0x0000000020000930      0x410 /usr/lib/gcc/arm-none-eabi/10.3.1/../../../arm-none-eabi/lib/thumb/v6-m/nofp/libg.a(lib_a-mallocr.o)
                0x0000000020000930                __malloc_sbrk_base
                0x0000000020000934                __malloc_trim_threshold
                0x0000000020000938                __malloc_av_
                0x0000000020000d40                . = ALIGN (0x4)
 *(.after_data.*)
                0x0000000020000d40                . = ALIGN (0x4)
                0x0000000020000d40                PROVIDE (__mutex_array_start = .)
 *(SORT_BY_NAME(.mutex_array.*))
 *(.mutex_array)
 .mutex_array   0x0000000020000d40        0x8 CMakeFiles/telitHost.dir/mnt/LinuxApps/PicoSDK/pico-sdk/src/rp2_common/pico_stdio/stdio.c.obj
                0x0000000020000d48                PROVIDE (__mutex_array_end = .)
                0x0000000020000d48                . = ALIGN (0x4)
                0x0000000020000d48                PROVIDE (__preinit_array_start = .)
 *(SORT_BY_NAME(.preinit_array.*))
 .preinit_array.00001
                0x0000000020000d48        0x4 CMakeFiles/telitHost.dir/mnt/LinuxApps/PicoSDK/pico-sdk/src/rp2_common/pico_mem_ops/mem_ops_aeabi.S.obj
 .preinit_array.00010
                0x0000000020000d4c        0x4 CMakeFiles/telitHost.dir/mnt/LinuxApps/PicoSDK/pico-sdk/src/rp2_common/pico_bit_ops/bit_ops_aeabi.S.obj
 .preinit_array.00020
                0x0000000020000d50        0x4 CMakeFiles/telitHost.dir/mnt/LinuxApps/PicoSDK/pico-sdk/src/rp2_common/pico_double/double_aeabi.S.obj
 .preinit_array.00020
                0x0000000020000d54        0x4 CMakeFiles/telitHost.dir/mnt/LinuxApps/PicoSDK/pico-sdk/src/rp2_common/pico_float/float_aeabi.S.obj
 *(.preinit_array)
                0x0000000020000d58                PROVIDE (__preinit_array_end = .)
                0x0000000020000d58                . = ALIGN (0x4)
                0x0000000020000d58                PROVIDE (__init_array_start = .)
 *(SORT_BY_NAME(.init_array.*))
 *(.init_array)
 .init_array    0x0000000020000d58        0x4 /usr/lib/gcc/arm-none-eabi/10.3.1/thumb/v6-m/nofp/crtbegin.o
 .init_array    0x0000000020000d5c        0x4 CMakeFiles/telitHost.dir/mnt/LinuxApps/PicoSDK/pico-sdk/src/rp2_common/pico_unique_id/unique_id.c.obj
                0x0000000020000d60                PROVIDE (__init_array_end = .)
                0x0000000020000d60                . = ALIGN (0x4)
                0x0000000020000d60                PROVIDE (__fini_array_start = .)
 *(SORT_BY_NAME(.fini_array.*))
 *(.fini_array)
                0x0000000020000d60                PROVIDE (__fini_array_end = .)
 *(.jcr)
                0x0000000020000d60                . = ALIGN (0x4)
                0x0000000020000d60                __data_end__ = .

.tm_clone_table
                0x0000000020000d60        0x0 load address 0x000000001000d0c0
 .tm_clone_table
                0x0000000020000d60        0x0 /usr/lib/gcc/arm-none-eabi/10.3.1/thumb/v6-m/nofp/crtbegin.o
 .tm_clone_table
                0x0000000020000d60        0x0 /usr/lib/gcc/arm-none-eabi/10.3.1/thumb/v6-m/nofp/crtend.o

.igot.plt       0x0000000020000d60        0x0 load address 0x000000001000d0c0
 .igot.plt      0x0000000020000d60        0x0 /usr/lib/gcc/arm-none-eabi/10.3.1/thumb/v6-m/nofp/crtbegin.o

.uninitialized_data
                0x0000000020000d60        0x0 load address 0x000000001000d0c0
                0x0000000020000d60                . = ALIGN (0x4)
 *(.uninitialized_data*)

.scratch_x      0x0000000020040000        0x0 load address 0x000000001000d0c0
                0x0000000020040000                __scratch_x_start__ = .
 *(.scratch_x.*)
                0x0000000020040000                . = ALIGN (0x4)
                0x0000000020040000                __scratch_x_end__ = .
                0x000000001000d0c0                __scratch_x_source__ = LOADADDR (.scratch_x)

.scratch_y      0x0000000020041000        0x0 load address 0x000000001000d0c0
                0x0000000020041000                __scratch_y_start__ = .
 *(.scratch_y.*)
                0x0000000020041000                . = ALIGN (0x4)
                0x0000000020041000                __scratch_y_end__ = .
                0x000000001000d0c0                __scratch_y_source__ = LOADADDR (.scratch_y)

.bss            0x0000000020000d60      0xf64
                0x0000000020000d60                . = ALIGN (0x4)
                0x0000000020000d60                __bss_start__ = .
 *(SORT_BY_ALIGNMENT(SORT_BY_NAME(.bss*)))
 .bss.default_alarm_pool_entries
                0x0000000020000d60      0x100 CMakeFiles/telitHost.dir/mnt/LinuxApps/PicoSDK/pico-sdk/src/common/pico_time/time.c.obj
 .bss.last_avail_time.2
                0x0000000020000e60        0x8 CMakeFiles/telitHost.dir/mnt/LinuxApps/PicoSDK/pico-sdk/src/rp2_common/pico_stdio_usb/stdio_usb.c.obj
 .bss           0x0000000020000e68       0x1c /usr/lib/gcc/arm-none-eabi/10.3.1/thumb/v6-m/nofp/crtbegin.o
 .bss           0x0000000020000e84       0x34 /usr/lib/gcc/arm-none-eabi/10.3.1/../../../arm-none-eabi/lib/thumb/v6-m/nofp/libg.a(lib_a-mallocr.o)
                0x0000000020000e84                __malloc_top_pad
                0x0000000020000e88                __malloc_current_mallinfo
                0x0000000020000eb0                __malloc_max_sbrked_mem
                0x0000000020000eb4                __malloc_max_total_mem
 .bss           0x0000000020000eb8        0x4 /usr/lib/gcc/arm-none-eabi/10.3.1/../../../arm-none-eabi/lib/thumb/v6-m/nofp/libg.a(lib_a-reent.o)
                0x0000000020000eb8                errno
 .bss._app_driver
                0x0000000020000ebc        0x4 CMakeFiles/telitHost.dir/mnt/LinuxApps/PicoSDK/pico-sdk/lib/tinyusb/src/device/usbd.c.obj
 .bss._callbacks
                0x0000000020000ec0        0x8 CMakeFiles/telitHost.dir/mnt/LinuxApps/PicoSDK/pico-sdk/src/rp2_common/hardware_gpio/gpio.c.obj
 .bss._cdcd_itf
                0x0000000020000ec8      0x2d8 CMakeFiles/telitHost.dir/mnt/LinuxApps/PicoSDK/pico-sdk/lib/tinyusb/src/class/cdc/cdc_device.c.obj
 .bss._ctrl_xfer
                0x00000000200011a0       0x14 CMakeFiles/telitHost.dir/mnt/LinuxApps/PicoSDK/pico-sdk/lib/tinyusb/src/device/usbd_control.c.obj
 .bss._timer_msg
                0x00000000200011b4        0x4 CMakeFiles/telitHost.dir/telitHost.c.obj
                0x00000000200011b4                _timer_msg
 .bss._ubsd_mutexdef
                0x00000000200011b8        0x8 CMakeFiles/telitHost.dir/mnt/LinuxApps/PicoSDK/pico-sdk/lib/tinyusb/src/device/usbd.c.obj
 .bss._usbd_ctrl_buf
                0x00000000200011c0       0x40 CMakeFiles/telitHost.dir/mnt/LinuxApps/PicoSDK/pico-sdk/lib/tinyusb/src/device/usbd_control.c.obj
 .bss._usbd_dev
                0x0000000020001200       0x53 CMakeFiles/telitHost.dir/mnt/LinuxApps/PicoSDK/pico-sdk/lib/tinyusb/src/device/usbd.c.obj
 *fill*         0x0000000020001253        0x1 
 .bss._usbd_mutex
                0x0000000020001254        0x4 CMakeFiles/telitHost.dir/mnt/LinuxApps/PicoSDK/pico-sdk/lib/tinyusb/src/device/usbd.c.obj
 .bss._usbd_q   0x0000000020001258        0x4 CMakeFiles/telitHost.dir/mnt/LinuxApps/PicoSDK/pico-sdk/lib/tinyusb/src/device/usbd.c.obj
 .bss._usbd_qdef_buf
                0x000000002000125c       0xc0 CMakeFiles/telitHost.dir/mnt/LinuxApps/PicoSDK/pico-sdk/lib/tinyusb/src/device/usbd.c.obj
                0x000000002000125c                _usbd_qdef_buf
 .bss.alarm_callbacks
                0x000000002000131c       0x10 CMakeFiles/telitHost.dir/mnt/LinuxApps/PicoSDK/pico-sdk/src/rp2_common/hardware_timer/timer.c.obj
 .bss.boot2_copyout
                0x000000002000132c      0x100 CMakeFiles/telitHost.dir/mnt/LinuxApps/PicoSDK/pico-sdk/src/rp2_common/hardware_flash/flash.c.obj
 .bss.btn_rise_started_time
                0x000000002000142c        0x4 CMakeFiles/telitHost.dir/telitHost.c.obj
                0x000000002000142c                btn_rise_started_time
 .bss.claimed   0x0000000020001430        0x4 CMakeFiles/telitHost.dir/mnt/LinuxApps/PicoSDK/pico-sdk/src/rp2_common/hardware_sync/sync.c.obj
 .bss.configured_freq
                0x0000000020001434       0x28 CMakeFiles/telitHost.dir/mnt/LinuxApps/PicoSDK/pico-sdk/src/rp2_common/hardware_clocks/clocks.c.obj
 .bss.default_alarm_pool_entry_ids_high
                0x000000002000145c       0x10 CMakeFiles/telitHost.dir/mnt/LinuxApps/PicoSDK/pico-sdk/src/common/pico_time/time.c.obj
 .bss.default_alarm_pool_heap_nodes
                0x000000002000146c       0x30 CMakeFiles/telitHost.dir/mnt/LinuxApps/PicoSDK/pico-sdk/src/common/pico_time/time.c.obj
 .bss.desc_str.0
                0x000000002000149c       0x28 CMakeFiles/telitHost.dir/mnt/LinuxApps/PicoSDK/pico-sdk/src/rp2_common/pico_stdio_usb/stdio_usb_descriptors.c.obj
 .bss.drivers   0x00000000200014c4        0x4 CMakeFiles/telitHost.dir/mnt/LinuxApps/PicoSDK/pico-sdk/src/rp2_common/pico_stdio/stdio.c.obj
 .bss.filter    0x00000000200014c8        0x4 CMakeFiles/telitHost.dir/mnt/LinuxApps/PicoSDK/pico-sdk/src/rp2_common/pico_stdio/stdio.c.obj
 .bss.heap_end.0
                0x00000000200014cc        0x4 CMakeFiles/telitHost.dir/mnt/LinuxApps/PicoSDK/pico-sdk/src/rp2_common/pico_runtime/runtime.c.obj
 .bss.hw_endpoints
                0x00000000200014d0      0x400 CMakeFiles/telitHost.dir/mnt/LinuxApps/PicoSDK/pico-sdk/lib/tinyusb/src/portable/raspberrypi/rp2040/dcd_rp2040.c.obj
 .bss.index_end
                0x00000000200018d0        0x4 CMakeFiles/telitHost.dir/telitHost.c.obj
                0x00000000200018d0                index_end
 .bss.index_start
                0x00000000200018d4        0x4 CMakeFiles/telitHost.dir/telitHost.c.obj
                0x00000000200018d4                index_start
 .bss.ip_address
                0x00000000200018d8        0x4 CMakeFiles/telitHost.dir/telitHost.c.obj
                0x00000000200018d8                ip_address
 .bss.load_value
                0x00000000200018dc        0x4 CMakeFiles/telitHost.dir/mnt/LinuxApps/PicoSDK/pico-sdk/src/rp2_common/hardware_watchdog/watchdog.c.obj
 .bss.next_buffer_ptr
                0x00000000200018e0        0x4 CMakeFiles/telitHost.dir/mnt/LinuxApps/PicoSDK/pico-sdk/lib/tinyusb/src/portable/raspberrypi/rp2040/dcd_rp2040.c.obj
 .bss.pools     0x00000000200018e4       0x10 CMakeFiles/telitHost.dir/mnt/LinuxApps/PicoSDK/pico-sdk/src/common/pico_time/time.c.obj
 .bss.retrieved_id
                0x00000000200018f4        0x8 CMakeFiles/telitHost.dir/mnt/LinuxApps/PicoSDK/pico-sdk/src/rp2_common/pico_unique_id/unique_id.c.obj
 .bss.sd_table  0x00000000200018fc      0x100 CMakeFiles/telitHost.dir/mnt/LinuxApps/PicoSDK/pico-sdk/src/rp2_common/pico_double/double_init_rom.c.obj
                0x00000000200018fc                sd_table
 .bss.sf_clz_func
                0x00000000200019fc        0x4 CMakeFiles/telitHost.dir/mnt/LinuxApps/PicoSDK/pico-sdk/src/rp2_common/pico_double/double_init_rom.c.obj
                0x00000000200019fc                sf_clz_func
 .bss.sf_table  0x0000000020001a00      0x100 CMakeFiles/telitHost.dir/mnt/LinuxApps/PicoSDK/pico-sdk/src/rp2_common/pico_float/float_init_rom.c.obj
                0x0000000020001a00                sf_table
 .bss.sleep_notifier
                0x0000000020001b00        0x4 CMakeFiles/telitHost.dir/mnt/LinuxApps/PicoSDK/pico-sdk/src/common/pico_time/time.c.obj
 .bss.stdio_usb_mutex
                0x0000000020001b04        0x8 CMakeFiles/telitHost.dir/mnt/LinuxApps/PicoSDK/pico-sdk/src/rp2_common/pico_stdio_usb/stdio_usb.c.obj
 .bss.target_hi
                0x0000000020001b0c       0x10 CMakeFiles/telitHost.dir/mnt/LinuxApps/PicoSDK/pico-sdk/src/rp2_common/hardware_timer/timer.c.obj
 .bss.uart0_buffer
                0x0000000020001b1c       0x80 CMakeFiles/telitHost.dir/telitHost.c.obj
                0x0000000020001b1c                uart0_buffer
 .bss.uart_char_to_line_feed
                0x0000000020001b9c        0x4 CMakeFiles/telitHost.dir/mnt/LinuxApps/PicoSDK/pico-sdk/src/rp2_common/hardware_uart/uart.c.obj
                0x0000000020001b9c                uart_char_to_line_feed
 .bss.usb_buffer
                0x0000000020001ba0      0x100 CMakeFiles/telitHost.dir/telitHost.c.obj
                0x0000000020001ba0                usb_buffer
 .bss.usbd_serial_str
                0x0000000020001ca0       0x11 CMakeFiles/telitHost.dir/mnt/LinuxApps/PicoSDK/pico-sdk/src/rp2_common/pico_stdio_usb/stdio_usb_descriptors.c.obj
 *fill*         0x0000000020001cb1        0x1 
 .bss.uart0_buffer_index
                0x0000000020001cb2        0x2 CMakeFiles/telitHost.dir/telitHost.c.obj
                0x0000000020001cb2                uart0_buffer_index
 .bss.usb_buffer_index
                0x0000000020001cb4        0x2 CMakeFiles/telitHost.dir/telitHost.c.obj
                0x0000000020001cb4                usb_buffer_index
 .bss._app_driver_count
                0x0000000020001cb6        0x1 CMakeFiles/telitHost.dir/mnt/LinuxApps/PicoSDK/pico-sdk/lib/tinyusb/src/device/usbd.c.obj
 .bss._check_read_timer
                0x0000000020001cb7        0x1 CMakeFiles/telitHost.dir/telitHost.c.obj
                0x0000000020001cb7                _check_read_timer
 .bss._usbd_initialized
                0x0000000020001cb8        0x1 CMakeFiles/telitHost.dir/mnt/LinuxApps/PicoSDK/pico-sdk/lib/tinyusb/src/device/usbd.c.obj
 .bss.boot2_copyout_valid
                0x0000000020001cb9        0x1 CMakeFiles/telitHost.dir/mnt/LinuxApps/PicoSDK/pico-sdk/src/rp2_common/hardware_flash/flash.c.obj
 .bss.claimed   0x0000000020001cba        0x1 CMakeFiles/telitHost.dir/mnt/LinuxApps/PicoSDK/pico-sdk/src/rp2_common/hardware_timer/timer.c.obj
 .bss.irq_hander_chain_free_slot_head
                0x0000000020001cbb        0x1 CMakeFiles/telitHost.dir/mnt/LinuxApps/PicoSDK/pico-sdk/src/rp2_common/hardware_irq/irq.c.obj
 .bss.is_board_button_clicked
                0x0000000020001cbc        0x1 CMakeFiles/telitHost.dir/telitHost.c.obj
                0x0000000020001cbc                is_board_button_clicked
 .bss.is_message_finished
                0x0000000020001cbd        0x1 CMakeFiles/telitHost.dir/telitHost.c.obj
                0x0000000020001cbd                is_message_finished
 .bss.itf_num   0x0000000020001cbe        0x1 CMakeFiles/telitHost.dir/mnt/LinuxApps/PicoSDK/pico-sdk/src/rp2_common/pico_stdio_usb/reset_interface.c.obj
 .bss.recieved_char
                0x0000000020001cbf        0x1 CMakeFiles/telitHost.dir/telitHost.c.obj
                0x0000000020001cbf                recieved_char
 .bss.timer_callbacks_pending
                0x0000000020001cc0        0x1 CMakeFiles/telitHost.dir/mnt/LinuxApps/PicoSDK/pico-sdk/src/rp2_common/hardware_timer/timer.c.obj
 *(COMMON)
                0x0000000020001cc4                . = ALIGN (0x4)
 *fill*         0x0000000020001cc1        0x3 
                0x0000000020001cc4                __bss_end__ = .

.heap           0x0000000020001cc4      0x800
                0x0000000020001cc4                __end__ = .
                0x0000000020001cc4                end = __end__
 *(.heap*)
 .heap          0x0000000020001cc4      0x800 CMakeFiles/telitHost.dir/mnt/LinuxApps/PicoSDK/pico-sdk/src/rp2_common/pico_standard_link/crt0.S.obj
                0x00000000200024c4                __HeapLimit = .

.stack1_dummy   0x0000000020040000        0x0
 *(.stack1*)

.stack_dummy    0x0000000020041000      0x800
 *(.stack*)
 .stack         0x0000000020041000      0x800 CMakeFiles/telitHost.dir/mnt/LinuxApps/PicoSDK/pico-sdk/src/rp2_common/pico_standard_link/crt0.S.obj

.flash_end      0x000000001000d0c0        0x0
                0x000000001000d0c0                __flash_binary_end = .
                0x0000000020040000                __StackLimit = (ORIGIN (RAM) + LENGTH (RAM))
                0x0000000020041000                __StackOneTop = (ORIGIN (SCRATCH_X) + LENGTH (SCRATCH_X))
                0x0000000020042000                __StackTop = (ORIGIN (SCRATCH_Y) + LENGTH (SCRATCH_Y))
                0x0000000020041000                __StackOneBottom = (__StackOneTop - SIZEOF (.stack1_dummy))
                0x0000000020041800                __StackBottom = (__StackTop - SIZEOF (.stack_dummy))
                0x0000000020042000                PROVIDE (__stack = __StackTop)
                0x0000000000000001                ASSERT ((__StackLimit >= __HeapLimit), region RAM overflowed)
                0x0000000000000001                ASSERT (((__binary_info_header_end - __logical_binary_start) <= 0x100), Binary info must be in first 256 bytes of the binary)
LOAD CMakeFiles/telitHost.dir/telitHost.c.obj
LOAD CMakeFiles/telitHost.dir/mnt/LinuxApps/PicoSDK/pico-sdk/src/rp2_common/pico_stdlib/stdlib.c.obj
LOAD CMakeFiles/telitHost.dir/mnt/LinuxApps/PicoSDK/pico-sdk/src/rp2_common/hardware_gpio/gpio.c.obj
LOAD CMakeFiles/telitHost.dir/mnt/LinuxApps/PicoSDK/pico-sdk/src/rp2_common/hardware_claim/claim.c.obj
LOAD CMakeFiles/telitHost.dir/mnt/LinuxApps/PicoSDK/pico-sdk/src/rp2_common/pico_platform/platform.c.obj
LOAD CMakeFiles/telitHost.dir/mnt/LinuxApps/PicoSDK/pico-sdk/src/rp2_common/hardware_sync/sync.c.obj
LOAD CMakeFiles/telitHost.dir/mnt/LinuxApps/PicoSDK/pico-sdk/src/rp2_common/hardware_uart/uart.c.obj
LOAD CMakeFiles/telitHost.dir/mnt/LinuxApps/PicoSDK/pico-sdk/src/rp2_common/hardware_divider/divider.S.obj
LOAD CMakeFiles/telitHost.dir/mnt/LinuxApps/PicoSDK/pico-sdk/src/common/pico_time/time.c.obj
LOAD CMakeFiles/telitHost.dir/mnt/LinuxApps/PicoSDK/pico-sdk/src/common/pico_time/timeout_helper.c.obj
LOAD CMakeFiles/telitHost.dir/mnt/LinuxApps/PicoSDK/pico-sdk/src/rp2_common/hardware_timer/timer.c.obj
LOAD CMakeFiles/telitHost.dir/mnt/LinuxApps/PicoSDK/pico-sdk/src/common/pico_sync/sem.c.obj
LOAD CMakeFiles/telitHost.dir/mnt/LinuxApps/PicoSDK/pico-sdk/src/common/pico_sync/lock_core.c.obj
LOAD CMakeFiles/telitHost.dir/mnt/LinuxApps/PicoSDK/pico-sdk/src/common/pico_sync/mutex.c.obj
LOAD CMakeFiles/telitHost.dir/mnt/LinuxApps/PicoSDK/pico-sdk/src/common/pico_sync/critical_section.c.obj
LOAD CMakeFiles/telitHost.dir/mnt/LinuxApps/PicoSDK/pico-sdk/src/common/pico_util/datetime.c.obj
LOAD CMakeFiles/telitHost.dir/mnt/LinuxApps/PicoSDK/pico-sdk/src/common/pico_util/pheap.c.obj
LOAD CMakeFiles/telitHost.dir/mnt/LinuxApps/PicoSDK/pico-sdk/src/common/pico_util/queue.c.obj
LOAD CMakeFiles/telitHost.dir/mnt/LinuxApps/PicoSDK/pico-sdk/src/rp2_common/pico_runtime/runtime.c.obj
LOAD CMakeFiles/telitHost.dir/mnt/LinuxApps/PicoSDK/pico-sdk/src/rp2_common/hardware_clocks/clocks.c.obj
LOAD CMakeFiles/telitHost.dir/mnt/LinuxApps/PicoSDK/pico-sdk/src/rp2_common/hardware_irq/irq.c.obj
LOAD CMakeFiles/telitHost.dir/mnt/LinuxApps/PicoSDK/pico-sdk/src/rp2_common/hardware_irq/irq_handler_chain.S.obj
LOAD CMakeFiles/telitHost.dir/mnt/LinuxApps/PicoSDK/pico-sdk/src/rp2_common/hardware_pll/pll.c.obj
LOAD CMakeFiles/telitHost.dir/mnt/LinuxApps/PicoSDK/pico-sdk/src/rp2_common/hardware_vreg/vreg.c.obj
LOAD CMakeFiles/telitHost.dir/mnt/LinuxApps/PicoSDK/pico-sdk/src/rp2_common/hardware_watchdog/watchdog.c.obj
LOAD CMakeFiles/telitHost.dir/mnt/LinuxApps/PicoSDK/pico-sdk/src/rp2_common/hardware_xosc/xosc.c.obj
LOAD CMakeFiles/telitHost.dir/mnt/LinuxApps/PicoSDK/pico-sdk/src/rp2_common/pico_printf/printf.c.obj
LOAD CMakeFiles/telitHost.dir/mnt/LinuxApps/PicoSDK/pico-sdk/src/rp2_common/pico_bit_ops/bit_ops_aeabi.S.obj
LOAD CMakeFiles/telitHost.dir/mnt/LinuxApps/PicoSDK/pico-sdk/src/rp2_common/pico_bootrom/bootrom.c.obj
LOAD CMakeFiles/telitHost.dir/mnt/LinuxApps/PicoSDK/pico-sdk/src/rp2_common/pico_divider/divider.S.obj
LOAD CMakeFiles/telitHost.dir/mnt/LinuxApps/PicoSDK/pico-sdk/src/rp2_common/pico_double/double_aeabi.S.obj
LOAD CMakeFiles/telitHost.dir/mnt/LinuxApps/PicoSDK/pico-sdk/src/rp2_common/pico_double/double_init_rom.c.obj
LOAD CMakeFiles/telitHost.dir/mnt/LinuxApps/PicoSDK/pico-sdk/src/rp2_common/pico_double/double_math.c.obj
LOAD CMakeFiles/telitHost.dir/mnt/LinuxApps/PicoSDK/pico-sdk/src/rp2_common/pico_double/double_v1_rom_shim.S.obj
LOAD CMakeFiles/telitHost.dir/mnt/LinuxApps/PicoSDK/pico-sdk/src/rp2_common/pico_int64_ops/pico_int64_ops_aeabi.S.obj
LOAD CMakeFiles/telitHost.dir/mnt/LinuxApps/PicoSDK/pico-sdk/src/rp2_common/pico_float/float_aeabi.S.obj
LOAD CMakeFiles/telitHost.dir/mnt/LinuxApps/PicoSDK/pico-sdk/src/rp2_common/pico_float/float_init_rom.c.obj
LOAD CMakeFiles/telitHost.dir/mnt/LinuxApps/PicoSDK/pico-sdk/src/rp2_common/pico_float/float_math.c.obj
LOAD CMakeFiles/telitHost.dir/mnt/LinuxApps/PicoSDK/pico-sdk/src/rp2_common/pico_float/float_v1_rom_shim.S.obj
LOAD CMakeFiles/telitHost.dir/mnt/LinuxApps/PicoSDK/pico-sdk/src/rp2_common/pico_malloc/pico_malloc.c.obj
LOAD CMakeFiles/telitHost.dir/mnt/LinuxApps/PicoSDK/pico-sdk/src/rp2_common/pico_mem_ops/mem_ops_aeabi.S.obj
LOAD CMakeFiles/telitHost.dir/mnt/LinuxApps/PicoSDK/pico-sdk/src/rp2_common/pico_standard_link/crt0.S.obj
LOAD CMakeFiles/telitHost.dir/mnt/LinuxApps/PicoSDK/pico-sdk/src/rp2_common/pico_standard_link/new_delete.cpp.obj
LOAD CMakeFiles/telitHost.dir/mnt/LinuxApps/PicoSDK/pico-sdk/src/rp2_common/pico_standard_link/binary_info.c.obj
LOAD CMakeFiles/telitHost.dir/mnt/LinuxApps/PicoSDK/pico-sdk/src/rp2_common/pico_stdio/stdio.c.obj
LOAD CMakeFiles/telitHost.dir/mnt/LinuxApps/PicoSDK/pico-sdk/src/rp2_common/pico_stdio_usb/reset_interface.c.obj
LOAD CMakeFiles/telitHost.dir/mnt/LinuxApps/PicoSDK/pico-sdk/src/rp2_common/pico_stdio_usb/stdio_usb.c.obj
LOAD CMakeFiles/telitHost.dir/mnt/LinuxApps/PicoSDK/pico-sdk/src/rp2_common/pico_stdio_usb/stdio_usb_descriptors.c.obj
LOAD CMakeFiles/telitHost.dir/mnt/LinuxApps/PicoSDK/pico-sdk/lib/tinyusb/src/portable/raspberrypi/rp2040/dcd_rp2040.c.obj
LOAD CMakeFiles/telitHost.dir/mnt/LinuxApps/PicoSDK/pico-sdk/lib/tinyusb/src/portable/raspberrypi/rp2040/rp2040_usb.c.obj
LOAD CMakeFiles/telitHost.dir/mnt/LinuxApps/PicoSDK/pico-sdk/lib/tinyusb/src/device/usbd.c.obj
LOAD CMakeFiles/telitHost.dir/mnt/LinuxApps/PicoSDK/pico-sdk/lib/tinyusb/src/device/usbd_control.c.obj
LOAD CMakeFiles/telitHost.dir/mnt/LinuxApps/PicoSDK/pico-sdk/lib/tinyusb/src/class/audio/audio_device.c.obj
LOAD CMakeFiles/telitHost.dir/mnt/LinuxApps/PicoSDK/pico-sdk/lib/tinyusb/src/class/cdc/cdc_device.c.obj
LOAD CMakeFiles/telitHost.dir/mnt/LinuxApps/PicoSDK/pico-sdk/lib/tinyusb/src/class/dfu/dfu_device.c.obj
LOAD CMakeFiles/telitHost.dir/mnt/LinuxApps/PicoSDK/pico-sdk/lib/tinyusb/src/class/dfu/dfu_rt_device.c.obj
LOAD CMakeFiles/telitHost.dir/mnt/LinuxApps/PicoSDK/pico-sdk/lib/tinyusb/src/class/hid/hid_device.c.obj
LOAD CMakeFiles/telitHost.dir/mnt/LinuxApps/PicoSDK/pico-sdk/lib/tinyusb/src/class/midi/midi_device.c.obj
LOAD CMakeFiles/telitHost.dir/mnt/LinuxApps/PicoSDK/pico-sdk/lib/tinyusb/src/class/msc/msc_device.c.obj
LOAD CMakeFiles/telitHost.dir/mnt/LinuxApps/PicoSDK/pico-sdk/lib/tinyusb/src/class/net/ecm_rndis_device.c.obj
LOAD CMakeFiles/telitHost.dir/mnt/LinuxApps/PicoSDK/pico-sdk/lib/tinyusb/src/class/net/ncm_device.c.obj
LOAD CMakeFiles/telitHost.dir/mnt/LinuxApps/PicoSDK/pico-sdk/lib/tinyusb/src/class/usbtmc/usbtmc_device.c.obj
LOAD CMakeFiles/telitHost.dir/mnt/LinuxApps/PicoSDK/pico-sdk/lib/tinyusb/src/class/vendor/vendor_device.c.obj
LOAD CMakeFiles/telitHost.dir/mnt/LinuxApps/PicoSDK/pico-sdk/lib/tinyusb/src/class/video/video_device.c.obj
LOAD CMakeFiles/telitHost.dir/mnt/LinuxApps/PicoSDK/pico-sdk/lib/tinyusb/src/tusb.c.obj
LOAD CMakeFiles/telitHost.dir/mnt/LinuxApps/PicoSDK/pico-sdk/lib/tinyusb/src/common/tusb_fifo.c.obj
LOAD CMakeFiles/telitHost.dir/mnt/LinuxApps/PicoSDK/pico-sdk/src/rp2_common/pico_fix/rp2040_usb_device_enumeration/rp2040_usb_device_enumeration.c.obj
LOAD CMakeFiles/telitHost.dir/mnt/LinuxApps/PicoSDK/pico-sdk/src/rp2_common/pico_unique_id/unique_id.c.obj
LOAD CMakeFiles/telitHost.dir/mnt/LinuxApps/PicoSDK/pico-sdk/src/rp2_common/hardware_flash/flash.c.obj
LOAD /tmp/ccNj6CkU.o
LOAD /usr/lib/gcc/arm-none-eabi/10.3.1/../../../arm-none-eabi/lib/thumb/v6-m/nofp/libstdc++.a
LOAD /usr/lib/gcc/arm-none-eabi/10.3.1/../../../arm-none-eabi/lib/thumb/v6-m/nofp/libm.a
START GROUP
LOAD /usr/lib/gcc/arm-none-eabi/10.3.1/thumb/v6-m/nofp/libgcc.a
LOAD /usr/lib/gcc/arm-none-eabi/10.3.1/../../../arm-none-eabi/lib/thumb/v6-m/nofp/libg.a
LOAD /usr/lib/gcc/arm-none-eabi/10.3.1/../../../arm-none-eabi/lib/thumb/v6-m/nofp/libc.a
END GROUP
START GROUP
LOAD /usr/lib/gcc/arm-none-eabi/10.3.1/thumb/v6-m/nofp/libgcc.a
LOAD /usr/lib/gcc/arm-none-eabi/10.3.1/../../../arm-none-eabi/lib/thumb/v6-m/nofp/libc.a
LOAD /usr/lib/gcc/arm-none-eabi/10.3.1/../../../arm-none-eabi/lib/thumb/v6-m/nofp/libnosys.a
END GROUP
LOAD /usr/lib/gcc/arm-none-eabi/10.3.1/thumb/v6-m/nofp/crtend.o
LOAD /usr/lib/gcc/arm-none-eabi/10.3.1/thumb/v6-m/nofp/crtn.o
OUTPUT(telitHost.elf elf32-littlearm)
LOAD linker stubs

.ARM.attributes
                0x0000000000000000       0x28
 .ARM.attributes
                0x0000000000000000       0x1e /usr/lib/gcc/arm-none-eabi/10.3.1/thumb/v6-m/nofp/crti.o
 .ARM.attributes
                0x000000000000001e       0x2c /usr/lib/gcc/arm-none-eabi/10.3.1/thumb/v6-m/nofp/crtbegin.o
 .ARM.attributes
                0x000000000000004a       0x2c CMakeFiles/telitHost.dir/telitHost.c.obj
 .ARM.attributes
                0x0000000000000076       0x2c CMakeFiles/telitHost.dir/mnt/LinuxApps/PicoSDK/pico-sdk/src/rp2_common/hardware_gpio/gpio.c.obj
 .ARM.attributes
                0x00000000000000a2       0x2c CMakeFiles/telitHost.dir/mnt/LinuxApps/PicoSDK/pico-sdk/src/rp2_common/hardware_claim/claim.c.obj
 .ARM.attributes
                0x00000000000000ce       0x2c CMakeFiles/telitHost.dir/mnt/LinuxApps/PicoSDK/pico-sdk/src/rp2_common/pico_platform/platform.c.obj
 .ARM.attributes
                0x00000000000000fa       0x2c CMakeFiles/telitHost.dir/mnt/LinuxApps/PicoSDK/pico-sdk/src/rp2_common/hardware_sync/sync.c.obj
 .ARM.attributes
                0x0000000000000126       0x2c CMakeFiles/telitHost.dir/mnt/LinuxApps/PicoSDK/pico-sdk/src/rp2_common/hardware_uart/uart.c.obj
 .ARM.attributes
                0x0000000000000152       0x2c CMakeFiles/telitHost.dir/mnt/LinuxApps/PicoSDK/pico-sdk/src/common/pico_time/time.c.obj
 .ARM.attributes
                0x000000000000017e       0x2c CMakeFiles/telitHost.dir/mnt/LinuxApps/PicoSDK/pico-sdk/src/rp2_common/hardware_timer/timer.c.obj
 .ARM.attributes
                0x00000000000001aa       0x2c CMakeFiles/telitHost.dir/mnt/LinuxApps/PicoSDK/pico-sdk/src/common/pico_sync/lock_core.c.obj
 .ARM.attributes
                0x00000000000001d6       0x2c CMakeFiles/telitHost.dir/mnt/LinuxApps/PicoSDK/pico-sdk/src/common/pico_sync/mutex.c.obj
 .ARM.attributes
                0x0000000000000202       0x2c CMakeFiles/telitHost.dir/mnt/LinuxApps/PicoSDK/pico-sdk/src/common/pico_sync/critical_section.c.obj
 .ARM.attributes
                0x000000000000022e       0x2c CMakeFiles/telitHost.dir/mnt/LinuxApps/PicoSDK/pico-sdk/src/common/pico_util/pheap.c.obj
 .ARM.attributes
                0x000000000000025a       0x2c CMakeFiles/telitHost.dir/mnt/LinuxApps/PicoSDK/pico-sdk/src/rp2_common/pico_runtime/runtime.c.obj
 .ARM.attributes
                0x0000000000000286       0x2c CMakeFiles/telitHost.dir/mnt/LinuxApps/PicoSDK/pico-sdk/src/rp2_common/hardware_clocks/clocks.c.obj
 .ARM.attributes
                0x00000000000002b2       0x2c CMakeFiles/telitHost.dir/mnt/LinuxApps/PicoSDK/pico-sdk/src/rp2_common/hardware_irq/irq.c.obj
 .ARM.attributes
                0x00000000000002de       0x22 CMakeFiles/telitHost.dir/mnt/LinuxApps/PicoSDK/pico-sdk/src/rp2_common/hardware_irq/irq_handler_chain.S.obj
 .ARM.attributes
                0x0000000000000300       0x2c CMakeFiles/telitHost.dir/mnt/LinuxApps/PicoSDK/pico-sdk/src/rp2_common/hardware_pll/pll.c.obj
 .ARM.attributes
                0x000000000000032c       0x2c CMakeFiles/telitHost.dir/mnt/LinuxApps/PicoSDK/pico-sdk/src/rp2_common/hardware_watchdog/watchdog.c.obj
 .ARM.attributes
                0x0000000000000358       0x2c CMakeFiles/telitHost.dir/mnt/LinuxApps/PicoSDK/pico-sdk/src/rp2_common/hardware_xosc/xosc.c.obj
 .ARM.attributes
                0x0000000000000384       0x2c CMakeFiles/telitHost.dir/mnt/LinuxApps/PicoSDK/pico-sdk/src/rp2_common/pico_printf/printf.c.obj
 .ARM.attributes
                0x00000000000003b0       0x22 CMakeFiles/telitHost.dir/mnt/LinuxApps/PicoSDK/pico-sdk/src/rp2_common/pico_bit_ops/bit_ops_aeabi.S.obj
 .ARM.attributes
                0x00000000000003d2       0x2c CMakeFiles/telitHost.dir/mnt/LinuxApps/PicoSDK/pico-sdk/src/rp2_common/pico_bootrom/bootrom.c.obj
 .ARM.attributes
                0x00000000000003fe       0x22 CMakeFiles/telitHost.dir/mnt/LinuxApps/PicoSDK/pico-sdk/src/rp2_common/pico_divider/divider.S.obj
 .ARM.attributes
                0x0000000000000420       0x22 CMakeFiles/telitHost.dir/mnt/LinuxApps/PicoSDK/pico-sdk/src/rp2_common/pico_double/double_aeabi.S.obj
 .ARM.attributes
                0x0000000000000442       0x2c CMakeFiles/telitHost.dir/mnt/LinuxApps/PicoSDK/pico-sdk/src/rp2_common/pico_double/double_init_rom.c.obj
 .ARM.attributes
                0x000000000000046e       0x22 CMakeFiles/telitHost.dir/mnt/LinuxApps/PicoSDK/pico-sdk/src/rp2_common/pico_double/double_v1_rom_shim.S.obj
 .ARM.attributes
                0x0000000000000490       0x22 CMakeFiles/telitHost.dir/mnt/LinuxApps/PicoSDK/pico-sdk/src/rp2_common/pico_int64_ops/pico_int64_ops_aeabi.S.obj
 .ARM.attributes
                0x00000000000004b2       0x22 CMakeFiles/telitHost.dir/mnt/LinuxApps/PicoSDK/pico-sdk/src/rp2_common/pico_float/float_aeabi.S.obj
 .ARM.attributes
                0x00000000000004d4       0x2c CMakeFiles/telitHost.dir/mnt/LinuxApps/PicoSDK/pico-sdk/src/rp2_common/pico_float/float_init_rom.c.obj
 .ARM.attributes
                0x0000000000000500       0x22 CMakeFiles/telitHost.dir/mnt/LinuxApps/PicoSDK/pico-sdk/src/rp2_common/pico_float/float_v1_rom_shim.S.obj
 .ARM.attributes
                0x0000000000000522       0x2c CMakeFiles/telitHost.dir/mnt/LinuxApps/PicoSDK/pico-sdk/src/rp2_common/pico_malloc/pico_malloc.c.obj
 .ARM.attributes
                0x000000000000054e       0x22 CMakeFiles/telitHost.dir/mnt/LinuxApps/PicoSDK/pico-sdk/src/rp2_common/pico_mem_ops/mem_ops_aeabi.S.obj
 .ARM.attributes
                0x0000000000000570       0x22 CMakeFiles/telitHost.dir/mnt/LinuxApps/PicoSDK/pico-sdk/src/rp2_common/pico_standard_link/crt0.S.obj
 .ARM.attributes
                0x0000000000000592       0x32 CMakeFiles/telitHost.dir/mnt/LinuxApps/PicoSDK/pico-sdk/src/rp2_common/pico_standard_link/binary_info.c.obj
 .ARM.attributes
                0x00000000000005c4       0x2c CMakeFiles/telitHost.dir/mnt/LinuxApps/PicoSDK/pico-sdk/src/rp2_common/pico_stdio/stdio.c.obj
 .ARM.attributes
                0x00000000000005f0       0x2c CMakeFiles/telitHost.dir/mnt/LinuxApps/PicoSDK/pico-sdk/src/rp2_common/pico_stdio_usb/reset_interface.c.obj
 .ARM.attributes
                0x000000000000061c       0x2c CMakeFiles/telitHost.dir/mnt/LinuxApps/PicoSDK/pico-sdk/src/rp2_common/pico_stdio_usb/stdio_usb.c.obj
 .ARM.attributes
                0x0000000000000648       0x2c CMakeFiles/telitHost.dir/mnt/LinuxApps/PicoSDK/pico-sdk/src/rp2_common/pico_stdio_usb/stdio_usb_descriptors.c.obj
 .ARM.attributes
                0x0000000000000674       0x2c CMakeFiles/telitHost.dir/mnt/LinuxApps/PicoSDK/pico-sdk/lib/tinyusb/src/portable/raspberrypi/rp2040/dcd_rp2040.c.obj
 .ARM.attributes
                0x00000000000006a0       0x2c CMakeFiles/telitHost.dir/mnt/LinuxApps/PicoSDK/pico-sdk/lib/tinyusb/src/portable/raspberrypi/rp2040/rp2040_usb.c.obj
 .ARM.attributes
                0x00000000000006cc       0x2c CMakeFiles/telitHost.dir/mnt/LinuxApps/PicoSDK/pico-sdk/lib/tinyusb/src/device/usbd.c.obj
 .ARM.attributes
                0x00000000000006f8       0x2c CMakeFiles/telitHost.dir/mnt/LinuxApps/PicoSDK/pico-sdk/lib/tinyusb/src/device/usbd_control.c.obj
 .ARM.attributes
                0x0000000000000724       0x2c CMakeFiles/telitHost.dir/mnt/LinuxApps/PicoSDK/pico-sdk/lib/tinyusb/src/class/cdc/cdc_device.c.obj
 .ARM.attributes
                0x0000000000000750       0x2c CMakeFiles/telitHost.dir/mnt/LinuxApps/PicoSDK/pico-sdk/lib/tinyusb/src/tusb.c.obj
 .ARM.attributes
                0x000000000000077c       0x2c CMakeFiles/telitHost.dir/mnt/LinuxApps/PicoSDK/pico-sdk/lib/tinyusb/src/common/tusb_fifo.c.obj
 .ARM.attributes
                0x00000000000007a8       0x2c CMakeFiles/telitHost.dir/mnt/LinuxApps/PicoSDK/pico-sdk/src/rp2_common/pico_unique_id/unique_id.c.obj
 .ARM.attributes
                0x00000000000007d4       0x2c CMakeFiles/telitHost.dir/mnt/LinuxApps/PicoSDK/pico-sdk/src/rp2_common/hardware_flash/flash.c.obj
 .ARM.attributes
                0x0000000000000800       0x22 /tmp/ccNj6CkU.o
 .ARM.attributes
                0x0000000000000822       0x1e /usr/lib/gcc/arm-none-eabi/10.3.1/thumb/v6-m/nofp/libgcc.a(_dvmd_tls.o)
 .ARM.attributes
                0x0000000000000840       0x2c /usr/lib/gcc/arm-none-eabi/10.3.1/../../../arm-none-eabi/lib/thumb/v6-m/nofp/libg.a(lib_a-atoi.o)
 .ARM.attributes
                0x000000000000086c       0x2c /usr/lib/gcc/arm-none-eabi/10.3.1/../../../arm-none-eabi/lib/thumb/v6-m/nofp/libg.a(lib_a-ctype_.o)
 .ARM.attributes
                0x0000000000000898       0x2c /usr/lib/gcc/arm-none-eabi/10.3.1/../../../arm-none-eabi/lib/thumb/v6-m/nofp/libg.a(lib_a-impure.o)
 .ARM.attributes
                0x00000000000008c4       0x2c /usr/lib/gcc/arm-none-eabi/10.3.1/../../../arm-none-eabi/lib/thumb/v6-m/nofp/libg.a(lib_a-malloc.o)
 .ARM.attributes
                0x00000000000008f0       0x2c /usr/lib/gcc/arm-none-eabi/10.3.1/../../../arm-none-eabi/lib/thumb/v6-m/nofp/libg.a(lib_a-mallocr.o)
 .ARM.attributes
                0x000000000000091c       0x2c /usr/lib/gcc/arm-none-eabi/10.3.1/../../../arm-none-eabi/lib/thumb/v6-m/nofp/libg.a(lib_a-mlock.o)
 .ARM.attributes
                0x0000000000000948       0x2c /usr/lib/gcc/arm-none-eabi/10.3.1/../../../arm-none-eabi/lib/thumb/v6-m/nofp/libg.a(lib_a-sbrkr.o)
 .ARM.attributes
                0x0000000000000974       0x2c /usr/lib/gcc/arm-none-eabi/10.3.1/../../../arm-none-eabi/lib/thumb/v6-m/nofp/libg.a(lib_a-strcat.o)
 .ARM.attributes
                0x00000000000009a0       0x2c /usr/lib/gcc/arm-none-eabi/10.3.1/../../../arm-none-eabi/lib/thumb/v6-m/nofp/libg.a(lib_a-strchr.o)
 .ARM.attributes
                0x00000000000009cc       0x2c /usr/lib/gcc/arm-none-eabi/10.3.1/../../../arm-none-eabi/lib/thumb/v6-m/nofp/libg.a(lib_a-strcpy.o)
 .ARM.attributes
                0x00000000000009f8       0x2c /usr/lib/gcc/arm-none-eabi/10.3.1/../../../arm-none-eabi/lib/thumb/v6-m/nofp/libg.a(lib_a-strlen-stub.o)
 .ARM.attributes
                0x0000000000000a24       0x2c /usr/lib/gcc/arm-none-eabi/10.3.1/../../../arm-none-eabi/lib/thumb/v6-m/nofp/libg.a(lib_a-strncpy.o)
 .ARM.attributes
                0x0000000000000a50       0x2c /usr/lib/gcc/arm-none-eabi/10.3.1/../../../arm-none-eabi/lib/thumb/v6-m/nofp/libg.a(lib_a-strstr.o)
 .ARM.attributes
                0x0000000000000a7c       0x2c /usr/lib/gcc/arm-none-eabi/10.3.1/../../../arm-none-eabi/lib/thumb/v6-m/nofp/libg.a(lib_a-strtol.o)
 .ARM.attributes
                0x0000000000000aa8       0x2c /usr/lib/gcc/arm-none-eabi/10.3.1/../../../arm-none-eabi/lib/thumb/v6-m/nofp/libg.a(lib_a-errno.o)
 .ARM.attributes
                0x0000000000000ad4       0x2c /usr/lib/gcc/arm-none-eabi/10.3.1/../../../arm-none-eabi/lib/thumb/v6-m/nofp/libg.a(lib_a-freer.o)
 .ARM.attributes
                0x0000000000000b00       0x2c /usr/lib/gcc/arm-none-eabi/10.3.1/../../../arm-none-eabi/lib/thumb/v6-m/nofp/libg.a(lib_a-memcmp.o)
 .ARM.attributes
                0x0000000000000b2c       0x2c /usr/lib/gcc/arm-none-eabi/10.3.1/../../../arm-none-eabi/lib/thumb/v6-m/nofp/libg.a(lib_a-reent.o)
 .ARM.attributes
                0x0000000000000b58       0x2c /usr/lib/gcc/arm-none-eabi/10.3.1/../../../arm-none-eabi/lib/thumb/v6-m/nofp/libg.a(lib_a-strnlen.o)
 .ARM.attributes
                0x0000000000000b84       0x2c /usr/lib/gcc/arm-none-eabi/10.3.1/thumb/v6-m/nofp/crtend.o

.comment        0x0000000000000000       0x33
 .comment       0x0000000000000000       0x33 /usr/lib/gcc/arm-none-eabi/10.3.1/thumb/v6-m/nofp/crtbegin.o
                                         0x34 (size before relaxing)
 .comment       0x0000000000000033       0x34 CMakeFiles/telitHost.dir/telitHost.c.obj
 .comment       0x0000000000000033       0x34 CMakeFiles/telitHost.dir/mnt/LinuxApps/PicoSDK/pico-sdk/src/rp2_common/hardware_gpio/gpio.c.obj
 .comment       0x0000000000000033       0x34 CMakeFiles/telitHost.dir/mnt/LinuxApps/PicoSDK/pico-sdk/src/rp2_common/hardware_claim/claim.c.obj
 .comment       0x0000000000000033       0x34 CMakeFiles/telitHost.dir/mnt/LinuxApps/PicoSDK/pico-sdk/src/rp2_common/pico_platform/platform.c.obj
 .comment       0x0000000000000033       0x34 CMakeFiles/telitHost.dir/mnt/LinuxApps/PicoSDK/pico-sdk/src/rp2_common/hardware_sync/sync.c.obj
 .comment       0x0000000000000033       0x34 CMakeFiles/telitHost.dir/mnt/LinuxApps/PicoSDK/pico-sdk/src/rp2_common/hardware_uart/uart.c.obj
 .comment       0x0000000000000033       0x34 CMakeFiles/telitHost.dir/mnt/LinuxApps/PicoSDK/pico-sdk/src/common/pico_time/time.c.obj
 .comment       0x0000000000000033       0x34 CMakeFiles/telitHost.dir/mnt/LinuxApps/PicoSDK/pico-sdk/src/rp2_common/hardware_timer/timer.c.obj
 .comment       0x0000000000000033       0x34 CMakeFiles/telitHost.dir/mnt/LinuxApps/PicoSDK/pico-sdk/src/common/pico_sync/lock_core.c.obj
 .comment       0x0000000000000033       0x34 CMakeFiles/telitHost.dir/mnt/LinuxApps/PicoSDK/pico-sdk/src/common/pico_sync/mutex.c.obj
 .comment       0x0000000000000033       0x34 CMakeFiles/telitHost.dir/mnt/LinuxApps/PicoSDK/pico-sdk/src/common/pico_sync/critical_section.c.obj
 .comment       0x0000000000000033       0x34 CMakeFiles/telitHost.dir/mnt/LinuxApps/PicoSDK/pico-sdk/src/common/pico_util/pheap.c.obj
 .comment       0x0000000000000033       0x34 CMakeFiles/telitHost.dir/mnt/LinuxApps/PicoSDK/pico-sdk/src/rp2_common/pico_runtime/runtime.c.obj
 .comment       0x0000000000000033       0x34 CMakeFiles/telitHost.dir/mnt/LinuxApps/PicoSDK/pico-sdk/src/rp2_common/hardware_clocks/clocks.c.obj
 .comment       0x0000000000000033       0x34 CMakeFiles/telitHost.dir/mnt/LinuxApps/PicoSDK/pico-sdk/src/rp2_common/hardware_irq/irq.c.obj
 .comment       0x0000000000000033       0x34 CMakeFiles/telitHost.dir/mnt/LinuxApps/PicoSDK/pico-sdk/src/rp2_common/hardware_pll/pll.c.obj
 .comment       0x0000000000000033       0x34 CMakeFiles/telitHost.dir/mnt/LinuxApps/PicoSDK/pico-sdk/src/rp2_common/hardware_watchdog/watchdog.c.obj
 .comment       0x0000000000000033       0x34 CMakeFiles/telitHost.dir/mnt/LinuxApps/PicoSDK/pico-sdk/src/rp2_common/hardware_xosc/xosc.c.obj
 .comment       0x0000000000000033       0x34 CMakeFiles/telitHost.dir/mnt/LinuxApps/PicoSDK/pico-sdk/src/rp2_common/pico_printf/printf.c.obj
 .comment       0x0000000000000033       0x34 CMakeFiles/telitHost.dir/mnt/LinuxApps/PicoSDK/pico-sdk/src/rp2_common/pico_bootrom/bootrom.c.obj
 .comment       0x0000000000000033       0x34 CMakeFiles/telitHost.dir/mnt/LinuxApps/PicoSDK/pico-sdk/src/rp2_common/pico_double/double_init_rom.c.obj
 .comment       0x0000000000000033       0x34 CMakeFiles/telitHost.dir/mnt/LinuxApps/PicoSDK/pico-sdk/src/rp2_common/pico_float/float_init_rom.c.obj
 .comment       0x0000000000000033       0x34 CMakeFiles/telitHost.dir/mnt/LinuxApps/PicoSDK/pico-sdk/src/rp2_common/pico_malloc/pico_malloc.c.obj
 .comment       0x0000000000000033       0x34 CMakeFiles/telitHost.dir/mnt/LinuxApps/PicoSDK/pico-sdk/src/rp2_common/pico_standard_link/binary_info.c.obj
 .comment       0x0000000000000033       0x34 CMakeFiles/telitHost.dir/mnt/LinuxApps/PicoSDK/pico-sdk/src/rp2_common/pico_stdio/stdio.c.obj
 .comment       0x0000000000000033       0x34 CMakeFiles/telitHost.dir/mnt/LinuxApps/PicoSDK/pico-sdk/src/rp2_common/pico_stdio_usb/reset_interface.c.obj
 .comment       0x0000000000000033       0x34 CMakeFiles/telitHost.dir/mnt/LinuxApps/PicoSDK/pico-sdk/src/rp2_common/pico_stdio_usb/stdio_usb.c.obj
 .comment       0x0000000000000033       0x34 CMakeFiles/telitHost.dir/mnt/LinuxApps/PicoSDK/pico-sdk/src/rp2_common/pico_stdio_usb/stdio_usb_descriptors.c.obj
 .comment       0x0000000000000033       0x34 CMakeFiles/telitHost.dir/mnt/LinuxApps/PicoSDK/pico-sdk/lib/tinyusb/src/portable/raspberrypi/rp2040/dcd_rp2040.c.obj
 .comment       0x0000000000000033       0x34 CMakeFiles/telitHost.dir/mnt/LinuxApps/PicoSDK/pico-sdk/lib/tinyusb/src/portable/raspberrypi/rp2040/rp2040_usb.c.obj
 .comment       0x0000000000000033       0x34 CMakeFiles/telitHost.dir/mnt/LinuxApps/PicoSDK/pico-sdk/lib/tinyusb/src/device/usbd.c.obj
 .comment       0x0000000000000033       0x34 CMakeFiles/telitHost.dir/mnt/LinuxApps/PicoSDK/pico-sdk/lib/tinyusb/src/device/usbd_control.c.obj
 .comment       0x0000000000000033       0x34 CMakeFiles/telitHost.dir/mnt/LinuxApps/PicoSDK/pico-sdk/lib/tinyusb/src/class/cdc/cdc_device.c.obj
 .comment       0x0000000000000033       0x34 CMakeFiles/telitHost.dir/mnt/LinuxApps/PicoSDK/pico-sdk/lib/tinyusb/src/tusb.c.obj
 .comment       0x0000000000000033       0x34 CMakeFiles/telitHost.dir/mnt/LinuxApps/PicoSDK/pico-sdk/lib/tinyusb/src/common/tusb_fifo.c.obj
 .comment       0x0000000000000033       0x34 CMakeFiles/telitHost.dir/mnt/LinuxApps/PicoSDK/pico-sdk/src/rp2_common/pico_unique_id/unique_id.c.obj
 .comment       0x0000000000000033       0x34 CMakeFiles/telitHost.dir/mnt/LinuxApps/PicoSDK/pico-sdk/src/rp2_common/hardware_flash/flash.c.obj
 .comment       0x0000000000000033       0x34 /usr/lib/gcc/arm-none-eabi/10.3.1/../../../arm-none-eabi/lib/thumb/v6-m/nofp/libg.a(lib_a-atoi.o)
 .comment       0x0000000000000033       0x34 /usr/lib/gcc/arm-none-eabi/10.3.1/../../../arm-none-eabi/lib/thumb/v6-m/nofp/libg.a(lib_a-ctype_.o)
 .comment       0x0000000000000033       0x34 /usr/lib/gcc/arm-none-eabi/10.3.1/../../../arm-none-eabi/lib/thumb/v6-m/nofp/libg.a(lib_a-impure.o)
 .comment       0x0000000000000033       0x34 /usr/lib/gcc/arm-none-eabi/10.3.1/../../../arm-none-eabi/lib/thumb/v6-m/nofp/libg.a(lib_a-malloc.o)
 .comment       0x0000000000000033       0x34 /usr/lib/gcc/arm-none-eabi/10.3.1/../../../arm-none-eabi/lib/thumb/v6-m/nofp/libg.a(lib_a-mallocr.o)
 .comment       0x0000000000000033       0x34 /usr/lib/gcc/arm-none-eabi/10.3.1/../../../arm-none-eabi/lib/thumb/v6-m/nofp/libg.a(lib_a-mlock.o)
 .comment       0x0000000000000033       0x34 /usr/lib/gcc/arm-none-eabi/10.3.1/../../../arm-none-eabi/lib/thumb/v6-m/nofp/libg.a(lib_a-sbrkr.o)
 .comment       0x0000000000000033       0x34 /usr/lib/gcc/arm-none-eabi/10.3.1/../../../arm-none-eabi/lib/thumb/v6-m/nofp/libg.a(lib_a-strcat.o)
 .comment       0x0000000000000033       0x34 /usr/lib/gcc/arm-none-eabi/10.3.1/../../../arm-none-eabi/lib/thumb/v6-m/nofp/libg.a(lib_a-strchr.o)
 .comment       0x0000000000000033       0x34 /usr/lib/gcc/arm-none-eabi/10.3.1/../../../arm-none-eabi/lib/thumb/v6-m/nofp/libg.a(lib_a-strcpy.o)
 .comment       0x0000000000000033       0x34 /usr/lib/gcc/arm-none-eabi/10.3.1/../../../arm-none-eabi/lib/thumb/v6-m/nofp/libg.a(lib_a-strlen-stub.o)
 .comment       0x0000000000000033       0x34 /usr/lib/gcc/arm-none-eabi/10.3.1/../../../arm-none-eabi/lib/thumb/v6-m/nofp/libg.a(lib_a-strncpy.o)
 .comment       0x0000000000000033       0x34 /usr/lib/gcc/arm-none-eabi/10.3.1/../../../arm-none-eabi/lib/thumb/v6-m/nofp/libg.a(lib_a-strstr.o)
 .comment       0x0000000000000033       0x34 /usr/lib/gcc/arm-none-eabi/10.3.1/../../../arm-none-eabi/lib/thumb/v6-m/nofp/libg.a(lib_a-strtol.o)
 .comment       0x0000000000000033       0x34 /usr/lib/gcc/arm-none-eabi/10.3.1/../../../arm-none-eabi/lib/thumb/v6-m/nofp/libg.a(lib_a-errno.o)
 .comment       0x0000000000000033       0x34 /usr/lib/gcc/arm-none-eabi/10.3.1/../../../arm-none-eabi/lib/thumb/v6-m/nofp/libg.a(lib_a-freer.o)
 .comment       0x0000000000000033       0x34 /usr/lib/gcc/arm-none-eabi/10.3.1/../../../arm-none-eabi/lib/thumb/v6-m/nofp/libg.a(lib_a-memcmp.o)
 .comment       0x0000000000000033       0x34 /usr/lib/gcc/arm-none-eabi/10.3.1/../../../arm-none-eabi/lib/thumb/v6-m/nofp/libg.a(lib_a-reent.o)
 .comment       0x0000000000000033       0x34 /usr/lib/gcc/arm-none-eabi/10.3.1/../../../arm-none-eabi/lib/thumb/v6-m/nofp/libg.a(lib_a-strnlen.o)
 .comment       0x0000000000000033       0x34 /usr/lib/gcc/arm-none-eabi/10.3.1/thumb/v6-m/nofp/crtend.o

.debug_info     0x0000000000000000    0x2e026
 .debug_info    0x0000000000000000     0x43eb CMakeFiles/telitHost.dir/telitHost.c.obj
 .debug_info    0x00000000000043eb     0x1479 CMakeFiles/telitHost.dir/mnt/LinuxApps/PicoSDK/pico-sdk/src/rp2_common/hardware_gpio/gpio.c.obj
 .debug_info    0x0000000000005864      0x6a3 CMakeFiles/telitHost.dir/mnt/LinuxApps/PicoSDK/pico-sdk/src/rp2_common/hardware_claim/claim.c.obj
 .debug_info    0x0000000000005f07      0x1cb CMakeFiles/telitHost.dir/mnt/LinuxApps/PicoSDK/pico-sdk/src/rp2_common/pico_platform/platform.c.obj
 .debug_info    0x00000000000060d2      0x576 CMakeFiles/telitHost.dir/mnt/LinuxApps/PicoSDK/pico-sdk/src/rp2_common/hardware_sync/sync.c.obj
 .debug_info    0x0000000000006648      0xb4d CMakeFiles/telitHost.dir/mnt/LinuxApps/PicoSDK/pico-sdk/src/rp2_common/hardware_uart/uart.c.obj
 .debug_info    0x0000000000007195     0x3aff CMakeFiles/telitHost.dir/mnt/LinuxApps/PicoSDK/pico-sdk/src/common/pico_time/time.c.obj
 .debug_info    0x000000000000ac94     0x10f8 CMakeFiles/telitHost.dir/mnt/LinuxApps/PicoSDK/pico-sdk/src/rp2_common/hardware_timer/timer.c.obj
 .debug_info    0x000000000000bd8c      0x198 CMakeFiles/telitHost.dir/mnt/LinuxApps/PicoSDK/pico-sdk/src/common/pico_sync/lock_core.c.obj
 .debug_info    0x000000000000bf24     0x1ff2 CMakeFiles/telitHost.dir/mnt/LinuxApps/PicoSDK/pico-sdk/src/common/pico_sync/mutex.c.obj
 .debug_info    0x000000000000df16      0x2c5 CMakeFiles/telitHost.dir/mnt/LinuxApps/PicoSDK/pico-sdk/src/common/pico_sync/critical_section.c.obj
 .debug_info    0x000000000000e1db     0x120c CMakeFiles/telitHost.dir/mnt/LinuxApps/PicoSDK/pico-sdk/src/common/pico_util/pheap.c.obj
 .debug_info    0x000000000000f3e7      0xa87 CMakeFiles/telitHost.dir/mnt/LinuxApps/PicoSDK/pico-sdk/src/rp2_common/pico_runtime/runtime.c.obj
 .debug_info    0x000000000000fe6e      0xf3c CMakeFiles/telitHost.dir/mnt/LinuxApps/PicoSDK/pico-sdk/src/rp2_common/hardware_clocks/clocks.c.obj
 .debug_info    0x0000000000010daa     0x1920 CMakeFiles/telitHost.dir/mnt/LinuxApps/PicoSDK/pico-sdk/src/rp2_common/hardware_irq/irq.c.obj
 .debug_info    0x00000000000126ca      0x503 CMakeFiles/telitHost.dir/mnt/LinuxApps/PicoSDK/pico-sdk/src/rp2_common/hardware_pll/pll.c.obj
 .debug_info    0x0000000000012bcd      0x4ee CMakeFiles/telitHost.dir/mnt/LinuxApps/PicoSDK/pico-sdk/src/rp2_common/hardware_watchdog/watchdog.c.obj
 .debug_info    0x00000000000130bb      0x1c0 CMakeFiles/telitHost.dir/mnt/LinuxApps/PicoSDK/pico-sdk/src/rp2_common/hardware_xosc/xosc.c.obj
 .debug_info    0x000000000001327b     0x1a47 CMakeFiles/telitHost.dir/mnt/LinuxApps/PicoSDK/pico-sdk/src/rp2_common/pico_printf/printf.c.obj
 .debug_info    0x0000000000014cc2       0x22 CMakeFiles/telitHost.dir/mnt/LinuxApps/PicoSDK/pico-sdk/src/rp2_common/pico_bit_ops/bit_ops_aeabi.S.obj
 .debug_info    0x0000000000014ce4      0x258 CMakeFiles/telitHost.dir/mnt/LinuxApps/PicoSDK/pico-sdk/src/rp2_common/pico_bootrom/bootrom.c.obj
 .debug_info    0x0000000000014f3c       0x22 CMakeFiles/telitHost.dir/mnt/LinuxApps/PicoSDK/pico-sdk/src/rp2_common/pico_divider/divider.S.obj
 .debug_info    0x0000000000014f5e       0x22 CMakeFiles/telitHost.dir/mnt/LinuxApps/PicoSDK/pico-sdk/src/rp2_common/pico_double/double_aeabi.S.obj
 .debug_info    0x0000000000014f80      0x2a1 CMakeFiles/telitHost.dir/mnt/LinuxApps/PicoSDK/pico-sdk/src/rp2_common/pico_double/double_init_rom.c.obj
 .debug_info    0x0000000000015221       0x22 CMakeFiles/telitHost.dir/mnt/LinuxApps/PicoSDK/pico-sdk/src/rp2_common/pico_double/double_v1_rom_shim.S.obj
 .debug_info    0x0000000000015243       0x26 CMakeFiles/telitHost.dir/mnt/LinuxApps/PicoSDK/pico-sdk/src/rp2_common/pico_int64_ops/pico_int64_ops_aeabi.S.obj
 .debug_info    0x0000000000015269       0x22 CMakeFiles/telitHost.dir/mnt/LinuxApps/PicoSDK/pico-sdk/src/rp2_common/pico_float/float_aeabi.S.obj
 .debug_info    0x000000000001528b      0x2bb CMakeFiles/telitHost.dir/mnt/LinuxApps/PicoSDK/pico-sdk/src/rp2_common/pico_float/float_init_rom.c.obj
 .debug_info    0x0000000000015546       0x22 CMakeFiles/telitHost.dir/mnt/LinuxApps/PicoSDK/pico-sdk/src/rp2_common/pico_float/float_v1_rom_shim.S.obj
 .debug_info    0x0000000000015568      0x278 CMakeFiles/telitHost.dir/mnt/LinuxApps/PicoSDK/pico-sdk/src/rp2_common/pico_malloc/pico_malloc.c.obj
 .debug_info    0x00000000000157e0       0x22 CMakeFiles/telitHost.dir/mnt/LinuxApps/PicoSDK/pico-sdk/src/rp2_common/pico_mem_ops/mem_ops_aeabi.S.obj
 .debug_info    0x0000000000015802       0x22 CMakeFiles/telitHost.dir/mnt/LinuxApps/PicoSDK/pico-sdk/src/rp2_common/pico_standard_link/crt0.S.obj
 .debug_info    0x0000000000015824      0x2c6 CMakeFiles/telitHost.dir/mnt/LinuxApps/PicoSDK/pico-sdk/src/rp2_common/pico_standard_link/binary_info.c.obj
 .debug_info    0x0000000000015aea     0x12ed CMakeFiles/telitHost.dir/mnt/LinuxApps/PicoSDK/pico-sdk/src/rp2_common/pico_stdio/stdio.c.obj
 .debug_info    0x0000000000016dd7      0x7aa CMakeFiles/telitHost.dir/mnt/LinuxApps/PicoSDK/pico-sdk/src/rp2_common/pico_stdio_usb/reset_interface.c.obj
 .debug_info    0x0000000000017581      0xe7a CMakeFiles/telitHost.dir/mnt/LinuxApps/PicoSDK/pico-sdk/src/rp2_common/pico_stdio_usb/stdio_usb.c.obj
 .debug_info    0x00000000000183fb      0x63b CMakeFiles/telitHost.dir/mnt/LinuxApps/PicoSDK/pico-sdk/src/rp2_common/pico_stdio_usb/stdio_usb_descriptors.c.obj
 .debug_info    0x0000000000018a36     0x184a CMakeFiles/telitHost.dir/mnt/LinuxApps/PicoSDK/pico-sdk/lib/tinyusb/src/portable/raspberrypi/rp2040/dcd_rp2040.c.obj
 .debug_info    0x000000000001a280      0xdb5 CMakeFiles/telitHost.dir/mnt/LinuxApps/PicoSDK/pico-sdk/lib/tinyusb/src/portable/raspberrypi/rp2040/rp2040_usb.c.obj
 .debug_info    0x000000000001b035     0x4386 CMakeFiles/telitHost.dir/mnt/LinuxApps/PicoSDK/pico-sdk/lib/tinyusb/src/device/usbd.c.obj
 .debug_info    0x000000000001f3bb      0xa1c CMakeFiles/telitHost.dir/mnt/LinuxApps/PicoSDK/pico-sdk/lib/tinyusb/src/device/usbd_control.c.obj
 .debug_info    0x000000000001fdd7     0x1b53 CMakeFiles/telitHost.dir/mnt/LinuxApps/PicoSDK/pico-sdk/lib/tinyusb/src/class/cdc/cdc_device.c.obj
 .debug_info    0x000000000002192a      0xc9a CMakeFiles/telitHost.dir/mnt/LinuxApps/PicoSDK/pico-sdk/lib/tinyusb/src/tusb.c.obj
 .debug_info    0x00000000000225c4     0x2963 CMakeFiles/telitHost.dir/mnt/LinuxApps/PicoSDK/pico-sdk/lib/tinyusb/src/common/tusb_fifo.c.obj
 .debug_info    0x0000000000024f27      0x24b CMakeFiles/telitHost.dir/mnt/LinuxApps/PicoSDK/pico-sdk/src/rp2_common/pico_unique_id/unique_id.c.obj
 .debug_info    0x0000000000025172      0xef2 CMakeFiles/telitHost.dir/mnt/LinuxApps/PicoSDK/pico-sdk/src/rp2_common/hardware_flash/flash.c.obj
 .debug_info    0x0000000000026064       0x26 /usr/lib/gcc/arm-none-eabi/10.3.1/thumb/v6-m/nofp/libgcc.a(_dvmd_tls.o)
 .debug_info    0x000000000002608a      0x9ae /usr/lib/gcc/arm-none-eabi/10.3.1/../../../arm-none-eabi/lib/thumb/v6-m/nofp/libg.a(lib_a-atoi.o)
 .debug_info    0x0000000000026a38       0xb8 /usr/lib/gcc/arm-none-eabi/10.3.1/../../../arm-none-eabi/lib/thumb/v6-m/nofp/libg.a(lib_a-ctype_.o)
 .debug_info    0x0000000000026af0      0x92a /usr/lib/gcc/arm-none-eabi/10.3.1/../../../arm-none-eabi/lib/thumb/v6-m/nofp/libg.a(lib_a-impure.o)
 .debug_info    0x000000000002741a      0x998 /usr/lib/gcc/arm-none-eabi/10.3.1/../../../arm-none-eabi/lib/thumb/v6-m/nofp/libg.a(lib_a-malloc.o)
 .debug_info    0x0000000000027db2      0xe80 /usr/lib/gcc/arm-none-eabi/10.3.1/../../../arm-none-eabi/lib/thumb/v6-m/nofp/libg.a(lib_a-mallocr.o)
 .debug_info    0x0000000000028c32      0x942 /usr/lib/gcc/arm-none-eabi/10.3.1/../../../arm-none-eabi/lib/thumb/v6-m/nofp/libg.a(lib_a-mlock.o)
 .debug_info    0x0000000000029574      0x98e /usr/lib/gcc/arm-none-eabi/10.3.1/../../../arm-none-eabi/lib/thumb/v6-m/nofp/libg.a(lib_a-sbrkr.o)
 .debug_info    0x0000000000029f02      0x125 /usr/lib/gcc/arm-none-eabi/10.3.1/../../../arm-none-eabi/lib/thumb/v6-m/nofp/libg.a(lib_a-strcat.o)
 .debug_info    0x000000000002a027      0x13a /usr/lib/gcc/arm-none-eabi/10.3.1/../../../arm-none-eabi/lib/thumb/v6-m/nofp/libg.a(lib_a-strchr.o)
 .debug_info    0x000000000002a161       0xc4 /usr/lib/gcc/arm-none-eabi/10.3.1/../../../arm-none-eabi/lib/thumb/v6-m/nofp/libg.a(lib_a-strcpy.o)
 .debug_info    0x000000000002a225       0xee /usr/lib/gcc/arm-none-eabi/10.3.1/../../../arm-none-eabi/lib/thumb/v6-m/nofp/libg.a(lib_a-strlen-stub.o)
 .debug_info    0x000000000002a313      0x153 /usr/lib/gcc/arm-none-eabi/10.3.1/../../../arm-none-eabi/lib/thumb/v6-m/nofp/libg.a(lib_a-strncpy.o)
 .debug_info    0x000000000002a466      0x73f /usr/lib/gcc/arm-none-eabi/10.3.1/../../../arm-none-eabi/lib/thumb/v6-m/nofp/libg.a(lib_a-strstr.o)
 .debug_info    0x000000000002aba5     0x108d /usr/lib/gcc/arm-none-eabi/10.3.1/../../../arm-none-eabi/lib/thumb/v6-m/nofp/libg.a(lib_a-strtol.o)
 .debug_info    0x000000000002bc32      0x914 /usr/lib/gcc/arm-none-eabi/10.3.1/../../../arm-none-eabi/lib/thumb/v6-m/nofp/libg.a(lib_a-errno.o)
 .debug_info    0x000000000002c546      0xce5 /usr/lib/gcc/arm-none-eabi/10.3.1/../../../arm-none-eabi/lib/thumb/v6-m/nofp/libg.a(lib_a-freer.o)
 .debug_info    0x000000000002d22b      0x138 /usr/lib/gcc/arm-none-eabi/10.3.1/../../../arm-none-eabi/lib/thumb/v6-m/nofp/libg.a(lib_a-memcmp.o)
 .debug_info    0x000000000002d363      0xbe1 /usr/lib/gcc/arm-none-eabi/10.3.1/../../../arm-none-eabi/lib/thumb/v6-m/nofp/libg.a(lib_a-reent.o)
 .debug_info    0x000000000002df44       0xe2 /usr/lib/gcc/arm-none-eabi/10.3.1/../../../arm-none-eabi/lib/thumb/v6-m/nofp/libg.a(lib_a-strnlen.o)

.debug_abbrev   0x0000000000000000     0x860b
 .debug_abbrev  0x0000000000000000      0x453 CMakeFiles/telitHost.dir/telitHost.c.obj
 .debug_abbrev  0x0000000000000453      0x2c4 CMakeFiles/telitHost.dir/mnt/LinuxApps/PicoSDK/pico-sdk/src/rp2_common/hardware_gpio/gpio.c.obj
 .debug_abbrev  0x0000000000000717      0x2e9 CMakeFiles/telitHost.dir/mnt/LinuxApps/PicoSDK/pico-sdk/src/rp2_common/hardware_claim/claim.c.obj
 .debug_abbrev  0x0000000000000a00       0xeb CMakeFiles/telitHost.dir/mnt/LinuxApps/PicoSDK/pico-sdk/src/rp2_common/pico_platform/platform.c.obj
 .debug_abbrev  0x0000000000000aeb      0x21b CMakeFiles/telitHost.dir/mnt/LinuxApps/PicoSDK/pico-sdk/src/rp2_common/hardware_sync/sync.c.obj
 .debug_abbrev  0x0000000000000d06      0x2d2 CMakeFiles/telitHost.dir/mnt/LinuxApps/PicoSDK/pico-sdk/src/rp2_common/hardware_uart/uart.c.obj
 .debug_abbrev  0x0000000000000fd8      0x54d CMakeFiles/telitHost.dir/mnt/LinuxApps/PicoSDK/pico-sdk/src/common/pico_time/time.c.obj
 .debug_abbrev  0x0000000000001525      0x3a2 CMakeFiles/telitHost.dir/mnt/LinuxApps/PicoSDK/pico-sdk/src/rp2_common/hardware_timer/timer.c.obj
 .debug_abbrev  0x00000000000018c7      0x116 CMakeFiles/telitHost.dir/mnt/LinuxApps/PicoSDK/pico-sdk/src/common/pico_sync/lock_core.c.obj
 .debug_abbrev  0x00000000000019dd      0x386 CMakeFiles/telitHost.dir/mnt/LinuxApps/PicoSDK/pico-sdk/src/common/pico_sync/mutex.c.obj
 .debug_abbrev  0x0000000000001d63      0x1aa CMakeFiles/telitHost.dir/mnt/LinuxApps/PicoSDK/pico-sdk/src/common/pico_sync/critical_section.c.obj
 .debug_abbrev  0x0000000000001f0d      0x297 CMakeFiles/telitHost.dir/mnt/LinuxApps/PicoSDK/pico-sdk/src/common/pico_util/pheap.c.obj
 .debug_abbrev  0x00000000000021a4      0x3aa CMakeFiles/telitHost.dir/mnt/LinuxApps/PicoSDK/pico-sdk/src/rp2_common/pico_runtime/runtime.c.obj
 .debug_abbrev  0x000000000000254e      0x3a5 CMakeFiles/telitHost.dir/mnt/LinuxApps/PicoSDK/pico-sdk/src/rp2_common/hardware_clocks/clocks.c.obj
 .debug_abbrev  0x00000000000028f3      0x4cd CMakeFiles/telitHost.dir/mnt/LinuxApps/PicoSDK/pico-sdk/src/rp2_common/hardware_irq/irq.c.obj
 .debug_abbrev  0x0000000000002dc0      0x1ea CMakeFiles/telitHost.dir/mnt/LinuxApps/PicoSDK/pico-sdk/src/rp2_common/hardware_pll/pll.c.obj
 .debug_abbrev  0x0000000000002faa      0x1a8 CMakeFiles/telitHost.dir/mnt/LinuxApps/PicoSDK/pico-sdk/src/rp2_common/hardware_watchdog/watchdog.c.obj
 .debug_abbrev  0x0000000000003152      0x109 CMakeFiles/telitHost.dir/mnt/LinuxApps/PicoSDK/pico-sdk/src/rp2_common/hardware_xosc/xosc.c.obj
 .debug_abbrev  0x000000000000325b      0x384 CMakeFiles/telitHost.dir/mnt/LinuxApps/PicoSDK/pico-sdk/src/rp2_common/pico_printf/printf.c.obj
 .debug_abbrev  0x00000000000035df       0x12 CMakeFiles/telitHost.dir/mnt/LinuxApps/PicoSDK/pico-sdk/src/rp2_common/pico_bit_ops/bit_ops_aeabi.S.obj
 .debug_abbrev  0x00000000000035f1      0x13b CMakeFiles/telitHost.dir/mnt/LinuxApps/PicoSDK/pico-sdk/src/rp2_common/pico_bootrom/bootrom.c.obj
 .debug_abbrev  0x000000000000372c       0x12 CMakeFiles/telitHost.dir/mnt/LinuxApps/PicoSDK/pico-sdk/src/rp2_common/pico_divider/divider.S.obj
 .debug_abbrev  0x000000000000373e       0x12 CMakeFiles/telitHost.dir/mnt/LinuxApps/PicoSDK/pico-sdk/src/rp2_common/pico_double/double_aeabi.S.obj
 .debug_abbrev  0x0000000000003750      0x179 CMakeFiles/telitHost.dir/mnt/LinuxApps/PicoSDK/pico-sdk/src/rp2_common/pico_double/double_init_rom.c.obj
 .debug_abbrev  0x00000000000038c9       0x12 CMakeFiles/telitHost.dir/mnt/LinuxApps/PicoSDK/pico-sdk/src/rp2_common/pico_double/double_v1_rom_shim.S.obj
 .debug_abbrev  0x00000000000038db       0x14 CMakeFiles/telitHost.dir/mnt/LinuxApps/PicoSDK/pico-sdk/src/rp2_common/pico_int64_ops/pico_int64_ops_aeabi.S.obj
 .debug_abbrev  0x00000000000038ef       0x12 CMakeFiles/telitHost.dir/mnt/LinuxApps/PicoSDK/pico-sdk/src/rp2_common/pico_float/float_aeabi.S.obj
 .debug_abbrev  0x0000000000003901      0x18c CMakeFiles/telitHost.dir/mnt/LinuxApps/PicoSDK/pico-sdk/src/rp2_common/pico_float/float_init_rom.c.obj
 .debug_abbrev  0x0000000000003a8d       0x12 CMakeFiles/telitHost.dir/mnt/LinuxApps/PicoSDK/pico-sdk/src/rp2_common/pico_float/float_v1_rom_shim.S.obj
 .debug_abbrev  0x0000000000003a9f      0x159 CMakeFiles/telitHost.dir/mnt/LinuxApps/PicoSDK/pico-sdk/src/rp2_common/pico_malloc/pico_malloc.c.obj
 .debug_abbrev  0x0000000000003bf8       0x12 CMakeFiles/telitHost.dir/mnt/LinuxApps/PicoSDK/pico-sdk/src/rp2_common/pico_mem_ops/mem_ops_aeabi.S.obj
 .debug_abbrev  0x0000000000003c0a       0x12 CMakeFiles/telitHost.dir/mnt/LinuxApps/PicoSDK/pico-sdk/src/rp2_common/pico_standard_link/crt0.S.obj
 .debug_abbrev  0x0000000000003c1c       0xad CMakeFiles/telitHost.dir/mnt/LinuxApps/PicoSDK/pico-sdk/src/rp2_common/pico_standard_link/binary_info.c.obj
 .debug_abbrev  0x0000000000003cc9      0x4a7 CMakeFiles/telitHost.dir/mnt/LinuxApps/PicoSDK/pico-sdk/src/rp2_common/pico_stdio/stdio.c.obj
 .debug_abbrev  0x0000000000004170      0x2b2 CMakeFiles/telitHost.dir/mnt/LinuxApps/PicoSDK/pico-sdk/src/rp2_common/pico_stdio_usb/reset_interface.c.obj
 .debug_abbrev  0x0000000000004422      0x3f8 CMakeFiles/telitHost.dir/mnt/LinuxApps/PicoSDK/pico-sdk/src/rp2_common/pico_stdio_usb/stdio_usb.c.obj
 .debug_abbrev  0x000000000000481a      0x14e CMakeFiles/telitHost.dir/mnt/LinuxApps/PicoSDK/pico-sdk/src/rp2_common/pico_stdio_usb/stdio_usb_descriptors.c.obj
 .debug_abbrev  0x0000000000004968      0x3d1 CMakeFiles/telitHost.dir/mnt/LinuxApps/PicoSDK/pico-sdk/lib/tinyusb/src/portable/raspberrypi/rp2040/dcd_rp2040.c.obj
 .debug_abbrev  0x0000000000004d39      0x36e CMakeFiles/telitHost.dir/mnt/LinuxApps/PicoSDK/pico-sdk/lib/tinyusb/src/portable/raspberrypi/rp2040/rp2040_usb.c.obj
 .debug_abbrev  0x00000000000050a7      0x569 CMakeFiles/telitHost.dir/mnt/LinuxApps/PicoSDK/pico-sdk/lib/tinyusb/src/device/usbd.c.obj
 .debug_abbrev  0x0000000000005610      0x316 CMakeFiles/telitHost.dir/mnt/LinuxApps/PicoSDK/pico-sdk/lib/tinyusb/src/device/usbd_control.c.obj
 .debug_abbrev  0x0000000000005926      0x457 CMakeFiles/telitHost.dir/mnt/LinuxApps/PicoSDK/pico-sdk/lib/tinyusb/src/class/cdc/cdc_device.c.obj
 .debug_abbrev  0x0000000000005d7d      0x2b4 CMakeFiles/telitHost.dir/mnt/LinuxApps/PicoSDK/pico-sdk/lib/tinyusb/src/tusb.c.obj
 .debug_abbrev  0x0000000000006031      0x3b4 CMakeFiles/telitHost.dir/mnt/LinuxApps/PicoSDK/pico-sdk/lib/tinyusb/src/common/tusb_fifo.c.obj
 .debug_abbrev  0x00000000000063e5      0x163 CMakeFiles/telitHost.dir/mnt/LinuxApps/PicoSDK/pico-sdk/src/rp2_common/pico_unique_id/unique_id.c.obj
 .debug_abbrev  0x0000000000006548      0x2b6 CMakeFiles/telitHost.dir/mnt/LinuxApps/PicoSDK/pico-sdk/src/rp2_common/hardware_flash/flash.c.obj
 .debug_abbrev  0x00000000000067fe       0x14 /usr/lib/gcc/arm-none-eabi/10.3.1/thumb/v6-m/nofp/libgcc.a(_dvmd_tls.o)
 .debug_abbrev  0x0000000000006812      0x1eb /usr/lib/gcc/arm-none-eabi/10.3.1/../../../arm-none-eabi/lib/thumb/v6-m/nofp/libg.a(lib_a-atoi.o)
 .debug_abbrev  0x00000000000069fd       0x62 /usr/lib/gcc/arm-none-eabi/10.3.1/../../../arm-none-eabi/lib/thumb/v6-m/nofp/libg.a(lib_a-ctype_.o)
 .debug_abbrev  0x0000000000006a5f      0x1b8 /usr/lib/gcc/arm-none-eabi/10.3.1/../../../arm-none-eabi/lib/thumb/v6-m/nofp/libg.a(lib_a-impure.o)
 .debug_abbrev  0x0000000000006c17      0x21a /usr/lib/gcc/arm-none-eabi/10.3.1/../../../arm-none-eabi/lib/thumb/v6-m/nofp/libg.a(lib_a-malloc.o)
 .debug_abbrev  0x0000000000006e31      0x2f6 /usr/lib/gcc/arm-none-eabi/10.3.1/../../../arm-none-eabi/lib/thumb/v6-m/nofp/libg.a(lib_a-mallocr.o)
 .debug_abbrev  0x0000000000007127      0x1f0 /usr/lib/gcc/arm-none-eabi/10.3.1/../../../arm-none-eabi/lib/thumb/v6-m/nofp/libg.a(lib_a-mlock.o)
 .debug_abbrev  0x0000000000007317      0x23d /usr/lib/gcc/arm-none-eabi/10.3.1/../../../arm-none-eabi/lib/thumb/v6-m/nofp/libg.a(lib_a-sbrkr.o)
 .debug_abbrev  0x0000000000007554       0xc4 /usr/lib/gcc/arm-none-eabi/10.3.1/../../../arm-none-eabi/lib/thumb/v6-m/nofp/libg.a(lib_a-strcat.o)
 .debug_abbrev  0x0000000000007618       0x94 /usr/lib/gcc/arm-none-eabi/10.3.1/../../../arm-none-eabi/lib/thumb/v6-m/nofp/libg.a(lib_a-strchr.o)
 .debug_abbrev  0x00000000000076ac       0x7b /usr/lib/gcc/arm-none-eabi/10.3.1/../../../arm-none-eabi/lib/thumb/v6-m/nofp/libg.a(lib_a-strcpy.o)
 .debug_abbrev  0x0000000000007727       0x8f /usr/lib/gcc/arm-none-eabi/10.3.1/../../../arm-none-eabi/lib/thumb/v6-m/nofp/libg.a(lib_a-strlen-stub.o)
 .debug_abbrev  0x00000000000077b6       0xbb /usr/lib/gcc/arm-none-eabi/10.3.1/../../../arm-none-eabi/lib/thumb/v6-m/nofp/libg.a(lib_a-strncpy.o)
 .debug_abbrev  0x0000000000007871      0x23c /usr/lib/gcc/arm-none-eabi/10.3.1/../../../arm-none-eabi/lib/thumb/v6-m/nofp/libg.a(lib_a-strstr.o)
 .debug_abbrev  0x0000000000007aad      0x315 /usr/lib/gcc/arm-none-eabi/10.3.1/../../../arm-none-eabi/lib/thumb/v6-m/nofp/libg.a(lib_a-strtol.o)
 .debug_abbrev  0x0000000000007dc2      0x1be /usr/lib/gcc/arm-none-eabi/10.3.1/../../../arm-none-eabi/lib/thumb/v6-m/nofp/libg.a(lib_a-errno.o)
 .debug_abbrev  0x0000000000007f80      0x2a1 /usr/lib/gcc/arm-none-eabi/10.3.1/../../../arm-none-eabi/lib/thumb/v6-m/nofp/libg.a(lib_a-freer.o)
 .debug_abbrev  0x0000000000008221       0x8d /usr/lib/gcc/arm-none-eabi/10.3.1/../../../arm-none-eabi/lib/thumb/v6-m/nofp/libg.a(lib_a-memcmp.o)
 .debug_abbrev  0x00000000000082ae      0x2d0 /usr/lib/gcc/arm-none-eabi/10.3.1/../../../arm-none-eabi/lib/thumb/v6-m/nofp/libg.a(lib_a-reent.o)
 .debug_abbrev  0x000000000000857e       0x8d /usr/lib/gcc/arm-none-eabi/10.3.1/../../../arm-none-eabi/lib/thumb/v6-m/nofp/libg.a(lib_a-strnlen.o)

.debug_loc      0x0000000000000000    0x1b252
 .debug_loc     0x0000000000000000     0x11a6 CMakeFiles/telitHost.dir/telitHost.c.obj
 .debug_loc     0x00000000000011a6      0xede CMakeFiles/telitHost.dir/mnt/LinuxApps/PicoSDK/pico-sdk/src/rp2_common/hardware_gpio/gpio.c.obj
 .debug_loc     0x0000000000002084      0x45f CMakeFiles/telitHost.dir/mnt/LinuxApps/PicoSDK/pico-sdk/src/rp2_common/hardware_claim/claim.c.obj
 .debug_loc     0x00000000000024e3       0xe9 CMakeFiles/telitHost.dir/mnt/LinuxApps/PicoSDK/pico-sdk/src/rp2_common/pico_platform/platform.c.obj
 .debug_loc     0x00000000000025cc      0x233 CMakeFiles/telitHost.dir/mnt/LinuxApps/PicoSDK/pico-sdk/src/rp2_common/hardware_sync/sync.c.obj
 .debug_loc     0x00000000000027ff      0x520 CMakeFiles/telitHost.dir/mnt/LinuxApps/PicoSDK/pico-sdk/src/rp2_common/hardware_uart/uart.c.obj
 .debug_loc     0x0000000000002d1f     0x2e2a CMakeFiles/telitHost.dir/mnt/LinuxApps/PicoSDK/pico-sdk/src/common/pico_time/time.c.obj
 .debug_loc     0x0000000000005b49      0x952 CMakeFiles/telitHost.dir/mnt/LinuxApps/PicoSDK/pico-sdk/src/rp2_common/hardware_timer/timer.c.obj
 .debug_loc     0x000000000000649b       0x60 CMakeFiles/telitHost.dir/mnt/LinuxApps/PicoSDK/pico-sdk/src/common/pico_sync/lock_core.c.obj
 .debug_loc     0x00000000000064fb     0x1469 CMakeFiles/telitHost.dir/mnt/LinuxApps/PicoSDK/pico-sdk/src/common/pico_sync/mutex.c.obj
 .debug_loc     0x0000000000007964       0xf5 CMakeFiles/telitHost.dir/mnt/LinuxApps/PicoSDK/pico-sdk/src/common/pico_sync/critical_section.c.obj
 .debug_loc     0x0000000000007a59     0x1439 CMakeFiles/telitHost.dir/mnt/LinuxApps/PicoSDK/pico-sdk/src/common/pico_util/pheap.c.obj
 .debug_loc     0x0000000000008e92      0x3f0 CMakeFiles/telitHost.dir/mnt/LinuxApps/PicoSDK/pico-sdk/src/rp2_common/pico_runtime/runtime.c.obj
 .debug_loc     0x0000000000009282      0x7eb CMakeFiles/telitHost.dir/mnt/LinuxApps/PicoSDK/pico-sdk/src/rp2_common/hardware_clocks/clocks.c.obj
 .debug_loc     0x0000000000009a6d     0x1274 CMakeFiles/telitHost.dir/mnt/LinuxApps/PicoSDK/pico-sdk/src/rp2_common/hardware_irq/irq.c.obj
 .debug_loc     0x000000000000ace1      0x300 CMakeFiles/telitHost.dir/mnt/LinuxApps/PicoSDK/pico-sdk/src/rp2_common/hardware_pll/pll.c.obj
 .debug_loc     0x000000000000afe1      0x2ec CMakeFiles/telitHost.dir/mnt/LinuxApps/PicoSDK/pico-sdk/src/rp2_common/hardware_watchdog/watchdog.c.obj
 .debug_loc     0x000000000000b2cd       0x71 CMakeFiles/telitHost.dir/mnt/LinuxApps/PicoSDK/pico-sdk/src/rp2_common/hardware_xosc/xosc.c.obj
 .debug_loc     0x000000000000b33e     0x2095 CMakeFiles/telitHost.dir/mnt/LinuxApps/PicoSDK/pico-sdk/src/rp2_common/pico_printf/printf.c.obj
 .debug_loc     0x000000000000d3d3      0x1a1 CMakeFiles/telitHost.dir/mnt/LinuxApps/PicoSDK/pico-sdk/src/rp2_common/pico_bootrom/bootrom.c.obj
 .debug_loc     0x000000000000d574       0x59 CMakeFiles/telitHost.dir/mnt/LinuxApps/PicoSDK/pico-sdk/src/rp2_common/pico_double/double_init_rom.c.obj
 .debug_loc     0x000000000000d5cd       0x73 CMakeFiles/telitHost.dir/mnt/LinuxApps/PicoSDK/pico-sdk/src/rp2_common/pico_float/float_init_rom.c.obj
 .debug_loc     0x000000000000d640      0x14c CMakeFiles/telitHost.dir/mnt/LinuxApps/PicoSDK/pico-sdk/src/rp2_common/pico_malloc/pico_malloc.c.obj
 .debug_loc     0x000000000000d78c      0xbad CMakeFiles/telitHost.dir/mnt/LinuxApps/PicoSDK/pico-sdk/src/rp2_common/pico_stdio/stdio.c.obj
 .debug_loc     0x000000000000e339      0x398 CMakeFiles/telitHost.dir/mnt/LinuxApps/PicoSDK/pico-sdk/src/rp2_common/pico_stdio_usb/reset_interface.c.obj
 .debug_loc     0x000000000000e6d1      0x558 CMakeFiles/telitHost.dir/mnt/LinuxApps/PicoSDK/pico-sdk/src/rp2_common/pico_stdio_usb/stdio_usb.c.obj
 .debug_loc     0x000000000000ec29      0x109 CMakeFiles/telitHost.dir/mnt/LinuxApps/PicoSDK/pico-sdk/src/rp2_common/pico_stdio_usb/stdio_usb_descriptors.c.obj
 .debug_loc     0x000000000000ed32      0xa8c CMakeFiles/telitHost.dir/mnt/LinuxApps/PicoSDK/pico-sdk/lib/tinyusb/src/portable/raspberrypi/rp2040/dcd_rp2040.c.obj
 .debug_loc     0x000000000000f7be      0x694 CMakeFiles/telitHost.dir/mnt/LinuxApps/PicoSDK/pico-sdk/lib/tinyusb/src/portable/raspberrypi/rp2040/rp2040_usb.c.obj
 .debug_loc     0x000000000000fe52     0x279c CMakeFiles/telitHost.dir/mnt/LinuxApps/PicoSDK/pico-sdk/lib/tinyusb/src/device/usbd.c.obj
 .debug_loc     0x00000000000125ee      0x5b9 CMakeFiles/telitHost.dir/mnt/LinuxApps/PicoSDK/pico-sdk/lib/tinyusb/src/device/usbd_control.c.obj
 .debug_loc     0x0000000000012ba7     0x1124 CMakeFiles/telitHost.dir/mnt/LinuxApps/PicoSDK/pico-sdk/lib/tinyusb/src/class/cdc/cdc_device.c.obj
 .debug_loc     0x0000000000013ccb      0x879 CMakeFiles/telitHost.dir/mnt/LinuxApps/PicoSDK/pico-sdk/lib/tinyusb/src/tusb.c.obj
 .debug_loc     0x0000000000014544     0x28ee CMakeFiles/telitHost.dir/mnt/LinuxApps/PicoSDK/pico-sdk/lib/tinyusb/src/common/tusb_fifo.c.obj
 .debug_loc     0x0000000000016e32       0xff CMakeFiles/telitHost.dir/mnt/LinuxApps/PicoSDK/pico-sdk/src/rp2_common/pico_unique_id/unique_id.c.obj
 .debug_loc     0x0000000000016f31      0x909 CMakeFiles/telitHost.dir/mnt/LinuxApps/PicoSDK/pico-sdk/src/rp2_common/hardware_flash/flash.c.obj
 .debug_loc     0x000000000001783a       0x6f /usr/lib/gcc/arm-none-eabi/10.3.1/../../../arm-none-eabi/lib/thumb/v6-m/nofp/libg.a(lib_a-atoi.o)
 .debug_loc     0x00000000000178a9       0x64 /usr/lib/gcc/arm-none-eabi/10.3.1/../../../arm-none-eabi/lib/thumb/v6-m/nofp/libg.a(lib_a-malloc.o)
 .debug_loc     0x000000000001790d      0xef0 /usr/lib/gcc/arm-none-eabi/10.3.1/../../../arm-none-eabi/lib/thumb/v6-m/nofp/libg.a(lib_a-mallocr.o)
 .debug_loc     0x00000000000187fd       0x79 /usr/lib/gcc/arm-none-eabi/10.3.1/../../../arm-none-eabi/lib/thumb/v6-m/nofp/libg.a(lib_a-sbrkr.o)
 .debug_loc     0x0000000000018876       0x98 /usr/lib/gcc/arm-none-eabi/10.3.1/../../../arm-none-eabi/lib/thumb/v6-m/nofp/libg.a(lib_a-strcat.o)
 .debug_loc     0x000000000001890e      0x193 /usr/lib/gcc/arm-none-eabi/10.3.1/../../../arm-none-eabi/lib/thumb/v6-m/nofp/libg.a(lib_a-strchr.o)
 .debug_loc     0x0000000000018aa1       0x25 /usr/lib/gcc/arm-none-eabi/10.3.1/../../../arm-none-eabi/lib/thumb/v6-m/nofp/libg.a(lib_a-strcpy.o)
 .debug_loc     0x0000000000018ac6       0x90 /usr/lib/gcc/arm-none-eabi/10.3.1/../../../arm-none-eabi/lib/thumb/v6-m/nofp/libg.a(lib_a-strlen-stub.o)
 .debug_loc     0x0000000000018b56      0x221 /usr/lib/gcc/arm-none-eabi/10.3.1/../../../arm-none-eabi/lib/thumb/v6-m/nofp/libg.a(lib_a-strncpy.o)
 .debug_loc     0x0000000000018d77      0xeac /usr/lib/gcc/arm-none-eabi/10.3.1/../../../arm-none-eabi/lib/thumb/v6-m/nofp/libg.a(lib_a-strstr.o)
 .debug_loc     0x0000000000019c23      0xc2b /usr/lib/gcc/arm-none-eabi/10.3.1/../../../arm-none-eabi/lib/thumb/v6-m/nofp/libg.a(lib_a-strtol.o)
 .debug_loc     0x000000000001a84e      0x4e3 /usr/lib/gcc/arm-none-eabi/10.3.1/../../../arm-none-eabi/lib/thumb/v6-m/nofp/libg.a(lib_a-freer.o)
 .debug_loc     0x000000000001ad31      0x1f1 /usr/lib/gcc/arm-none-eabi/10.3.1/../../../arm-none-eabi/lib/thumb/v6-m/nofp/libg.a(lib_a-memcmp.o)
 .debug_loc     0x000000000001af22      0x1e0 /usr/lib/gcc/arm-none-eabi/10.3.1/../../../arm-none-eabi/lib/thumb/v6-m/nofp/libg.a(lib_a-reent.o)
 .debug_loc     0x000000000001b102      0x150 /usr/lib/gcc/arm-none-eabi/10.3.1/../../../arm-none-eabi/lib/thumb/v6-m/nofp/libg.a(lib_a-strnlen.o)

.debug_aranges  0x0000000000000000     0x16d0
 .debug_aranges
                0x0000000000000000      0x100 CMakeFiles/telitHost.dir/telitHost.c.obj
 .debug_aranges
                0x0000000000000100       0xd8 CMakeFiles/telitHost.dir/mnt/LinuxApps/PicoSDK/pico-sdk/src/rp2_common/hardware_gpio/gpio.c.obj
 .debug_aranges
                0x00000000000001d8       0x48 CMakeFiles/telitHost.dir/mnt/LinuxApps/PicoSDK/pico-sdk/src/rp2_common/hardware_claim/claim.c.obj
 .debug_aranges
                0x0000000000000220       0x28 CMakeFiles/telitHost.dir/mnt/LinuxApps/PicoSDK/pico-sdk/src/rp2_common/pico_platform/platform.c.obj
 .debug_aranges
                0x0000000000000248       0x58 CMakeFiles/telitHost.dir/mnt/LinuxApps/PicoSDK/pico-sdk/src/rp2_common/hardware_sync/sync.c.obj
 .debug_aranges
                0x00000000000002a0       0x40 CMakeFiles/telitHost.dir/mnt/LinuxApps/PicoSDK/pico-sdk/src/rp2_common/hardware_uart/uart.c.obj
 .debug_aranges
                0x00000000000002e0       0xd0 CMakeFiles/telitHost.dir/mnt/LinuxApps/PicoSDK/pico-sdk/src/common/pico_time/time.c.obj
 .debug_aranges
                0x00000000000003b0       0x78 CMakeFiles/telitHost.dir/mnt/LinuxApps/PicoSDK/pico-sdk/src/rp2_common/hardware_timer/timer.c.obj
 .debug_aranges
                0x0000000000000428       0x20 CMakeFiles/telitHost.dir/mnt/LinuxApps/PicoSDK/pico-sdk/src/common/pico_sync/lock_core.c.obj
 .debug_aranges
                0x0000000000000448       0x88 CMakeFiles/telitHost.dir/mnt/LinuxApps/PicoSDK/pico-sdk/src/common/pico_sync/mutex.c.obj
 .debug_aranges
                0x00000000000004d0       0x30 CMakeFiles/telitHost.dir/mnt/LinuxApps/PicoSDK/pico-sdk/src/common/pico_sync/critical_section.c.obj
 .debug_aranges
                0x0000000000000500       0x78 CMakeFiles/telitHost.dir/mnt/LinuxApps/PicoSDK/pico-sdk/src/common/pico_util/pheap.c.obj
 .debug_aranges
                0x0000000000000578       0x60 CMakeFiles/telitHost.dir/mnt/LinuxApps/PicoSDK/pico-sdk/src/rp2_common/pico_runtime/runtime.c.obj
 .debug_aranges
                0x00000000000005d8       0x70 CMakeFiles/telitHost.dir/mnt/LinuxApps/PicoSDK/pico-sdk/src/rp2_common/hardware_clocks/clocks.c.obj
 .debug_aranges
                0x0000000000000648       0x98 CMakeFiles/telitHost.dir/mnt/LinuxApps/PicoSDK/pico-sdk/src/rp2_common/hardware_irq/irq.c.obj
 .debug_aranges
                0x00000000000006e0       0x28 CMakeFiles/telitHost.dir/mnt/LinuxApps/PicoSDK/pico-sdk/src/rp2_common/hardware_pll/pll.c.obj
 .debug_aranges
                0x0000000000000708       0x58 CMakeFiles/telitHost.dir/mnt/LinuxApps/PicoSDK/pico-sdk/src/rp2_common/hardware_watchdog/watchdog.c.obj
 .debug_aranges
                0x0000000000000760       0x30 CMakeFiles/telitHost.dir/mnt/LinuxApps/PicoSDK/pico-sdk/src/rp2_common/hardware_xosc/xosc.c.obj
 .debug_aranges
                0x0000000000000790       0x90 CMakeFiles/telitHost.dir/mnt/LinuxApps/PicoSDK/pico-sdk/src/rp2_common/pico_printf/printf.c.obj
 .debug_aranges
                0x0000000000000820       0x68 CMakeFiles/telitHost.dir/mnt/LinuxApps/PicoSDK/pico-sdk/src/rp2_common/pico_bit_ops/bit_ops_aeabi.S.obj
 .debug_aranges
                0x0000000000000888       0x30 CMakeFiles/telitHost.dir/mnt/LinuxApps/PicoSDK/pico-sdk/src/rp2_common/pico_bootrom/bootrom.c.obj
 .debug_aranges
                0x00000000000008b8       0x40 CMakeFiles/telitHost.dir/mnt/LinuxApps/PicoSDK/pico-sdk/src/rp2_common/pico_divider/divider.S.obj
 .debug_aranges
                0x00000000000008f8      0x140 CMakeFiles/telitHost.dir/mnt/LinuxApps/PicoSDK/pico-sdk/src/rp2_common/pico_double/double_aeabi.S.obj
 .debug_aranges
                0x0000000000000a38       0x20 CMakeFiles/telitHost.dir/mnt/LinuxApps/PicoSDK/pico-sdk/src/rp2_common/pico_double/double_init_rom.c.obj
 .debug_aranges
                0x0000000000000a58       0xc8 CMakeFiles/telitHost.dir/mnt/LinuxApps/PicoSDK/pico-sdk/src/rp2_common/pico_double/double_v1_rom_shim.S.obj
 .debug_aranges
                0x0000000000000b20       0x20 CMakeFiles/telitHost.dir/mnt/LinuxApps/PicoSDK/pico-sdk/src/rp2_common/pico_int64_ops/pico_int64_ops_aeabi.S.obj
 .debug_aranges
                0x0000000000000b40      0x130 CMakeFiles/telitHost.dir/mnt/LinuxApps/PicoSDK/pico-sdk/src/rp2_common/pico_float/float_aeabi.S.obj
 .debug_aranges
                0x0000000000000c70       0x20 CMakeFiles/telitHost.dir/mnt/LinuxApps/PicoSDK/pico-sdk/src/rp2_common/pico_float/float_init_rom.c.obj
 .debug_aranges
                0x0000000000000c90       0x50 CMakeFiles/telitHost.dir/mnt/LinuxApps/PicoSDK/pico-sdk/src/rp2_common/pico_float/float_v1_rom_shim.S.obj
 .debug_aranges
                0x0000000000000ce0       0x30 CMakeFiles/telitHost.dir/mnt/LinuxApps/PicoSDK/pico-sdk/src/rp2_common/pico_malloc/pico_malloc.c.obj
 .debug_aranges
                0x0000000000000d10       0x38 CMakeFiles/telitHost.dir/mnt/LinuxApps/PicoSDK/pico-sdk/src/rp2_common/pico_mem_ops/mem_ops_aeabi.S.obj
 .debug_aranges
                0x0000000000000d48       0x28 CMakeFiles/telitHost.dir/mnt/LinuxApps/PicoSDK/pico-sdk/src/rp2_common/pico_standard_link/crt0.S.obj
 .debug_aranges
                0x0000000000000d70       0x18 CMakeFiles/telitHost.dir/mnt/LinuxApps/PicoSDK/pico-sdk/src/rp2_common/pico_standard_link/binary_info.c.obj
 .debug_aranges
                0x0000000000000d88       0xd0 CMakeFiles/telitHost.dir/mnt/LinuxApps/PicoSDK/pico-sdk/src/rp2_common/pico_stdio/stdio.c.obj
 .debug_aranges
                0x0000000000000e58       0x58 CMakeFiles/telitHost.dir/mnt/LinuxApps/PicoSDK/pico-sdk/src/rp2_common/pico_stdio_usb/reset_interface.c.obj
 .debug_aranges
                0x0000000000000eb0       0x48 CMakeFiles/telitHost.dir/mnt/LinuxApps/PicoSDK/pico-sdk/src/rp2_common/pico_stdio_usb/stdio_usb.c.obj
 .debug_aranges
                0x0000000000000ef8       0x30 CMakeFiles/telitHost.dir/mnt/LinuxApps/PicoSDK/pico-sdk/src/rp2_common/pico_stdio_usb/stdio_usb_descriptors.c.obj
 .debug_aranges
                0x0000000000000f28       0xd0 CMakeFiles/telitHost.dir/mnt/LinuxApps/PicoSDK/pico-sdk/lib/tinyusb/src/portable/raspberrypi/rp2040/dcd_rp2040.c.obj
 .debug_aranges
                0x0000000000000ff8       0x60 CMakeFiles/telitHost.dir/mnt/LinuxApps/PicoSDK/pico-sdk/lib/tinyusb/src/portable/raspberrypi/rp2040/rp2040_usb.c.obj
 .debug_aranges
                0x0000000000001058      0x128 CMakeFiles/telitHost.dir/mnt/LinuxApps/PicoSDK/pico-sdk/lib/tinyusb/src/device/usbd.c.obj
 .debug_aranges
                0x0000000000001180       0x50 CMakeFiles/telitHost.dir/mnt/LinuxApps/PicoSDK/pico-sdk/lib/tinyusb/src/device/usbd_control.c.obj
 .debug_aranges
                0x00000000000011d0       0xa8 CMakeFiles/telitHost.dir/mnt/LinuxApps/PicoSDK/pico-sdk/lib/tinyusb/src/class/cdc/cdc_device.c.obj
 .debug_aranges
                0x0000000000001278       0x50 CMakeFiles/telitHost.dir/mnt/LinuxApps/PicoSDK/pico-sdk/lib/tinyusb/src/tusb.c.obj
 .debug_aranges
                0x00000000000012c8      0x118 CMakeFiles/telitHost.dir/mnt/LinuxApps/PicoSDK/pico-sdk/lib/tinyusb/src/common/tusb_fifo.c.obj
 .debug_aranges
                0x00000000000013e0       0x30 CMakeFiles/telitHost.dir/mnt/LinuxApps/PicoSDK/pico-sdk/src/rp2_common/pico_unique_id/unique_id.c.obj
 .debug_aranges
                0x0000000000001410       0x50 CMakeFiles/telitHost.dir/mnt/LinuxApps/PicoSDK/pico-sdk/src/rp2_common/hardware_flash/flash.c.obj
 .debug_aranges
                0x0000000000001460       0x20 /usr/lib/gcc/arm-none-eabi/10.3.1/thumb/v6-m/nofp/libgcc.a(_dvmd_tls.o)
 .debug_aranges
                0x0000000000001480       0x20 /usr/lib/gcc/arm-none-eabi/10.3.1/../../../arm-none-eabi/lib/thumb/v6-m/nofp/libg.a(lib_a-atoi.o)
 .debug_aranges
                0x00000000000014a0       0x18 /usr/lib/gcc/arm-none-eabi/10.3.1/../../../arm-none-eabi/lib/thumb/v6-m/nofp/libg.a(lib_a-ctype_.o)
 .debug_aranges
                0x00000000000014b8       0x18 /usr/lib/gcc/arm-none-eabi/10.3.1/../../../arm-none-eabi/lib/thumb/v6-m/nofp/libg.a(lib_a-impure.o)
 .debug_aranges
                0x00000000000014d0       0x20 /usr/lib/gcc/arm-none-eabi/10.3.1/../../../arm-none-eabi/lib/thumb/v6-m/nofp/libg.a(lib_a-malloc.o)
 .debug_aranges
                0x00000000000014f0       0x20 /usr/lib/gcc/arm-none-eabi/10.3.1/../../../arm-none-eabi/lib/thumb/v6-m/nofp/libg.a(lib_a-mallocr.o)
 .debug_aranges
                0x0000000000001510       0x20 /usr/lib/gcc/arm-none-eabi/10.3.1/../../../arm-none-eabi/lib/thumb/v6-m/nofp/libg.a(lib_a-mlock.o)
 .debug_aranges
                0x0000000000001530       0x20 /usr/lib/gcc/arm-none-eabi/10.3.1/../../../arm-none-eabi/lib/thumb/v6-m/nofp/libg.a(lib_a-sbrkr.o)
 .debug_aranges
                0x0000000000001550       0x20 /usr/lib/gcc/arm-none-eabi/10.3.1/../../../arm-none-eabi/lib/thumb/v6-m/nofp/libg.a(lib_a-strcat.o)
 .debug_aranges
                0x0000000000001570       0x20 /usr/lib/gcc/arm-none-eabi/10.3.1/../../../arm-none-eabi/lib/thumb/v6-m/nofp/libg.a(lib_a-strchr.o)
 .debug_aranges
                0x0000000000001590       0x20 /usr/lib/gcc/arm-none-eabi/10.3.1/../../../arm-none-eabi/lib/thumb/v6-m/nofp/libg.a(lib_a-strcpy.o)
 .debug_aranges
                0x00000000000015b0       0x20 /usr/lib/gcc/arm-none-eabi/10.3.1/../../../arm-none-eabi/lib/thumb/v6-m/nofp/libg.a(lib_a-strlen-stub.o)
 .debug_aranges
                0x00000000000015d0       0x20 /usr/lib/gcc/arm-none-eabi/10.3.1/../../../arm-none-eabi/lib/thumb/v6-m/nofp/libg.a(lib_a-strncpy.o)
 .debug_aranges
                0x00000000000015f0       0x20 /usr/lib/gcc/arm-none-eabi/10.3.1/../../../arm-none-eabi/lib/thumb/v6-m/nofp/libg.a(lib_a-strstr.o)
 .debug_aranges
                0x0000000000001610       0x20 /usr/lib/gcc/arm-none-eabi/10.3.1/../../../arm-none-eabi/lib/thumb/v6-m/nofp/libg.a(lib_a-strtol.o)
 .debug_aranges
                0x0000000000001630       0x20 /usr/lib/gcc/arm-none-eabi/10.3.1/../../../arm-none-eabi/lib/thumb/v6-m/nofp/libg.a(lib_a-errno.o)
 .debug_aranges
                0x0000000000001650       0x20 /usr/lib/gcc/arm-none-eabi/10.3.1/../../../arm-none-eabi/lib/thumb/v6-m/nofp/libg.a(lib_a-freer.o)
 .debug_aranges
                0x0000000000001670       0x20 /usr/lib/gcc/arm-none-eabi/10.3.1/../../../arm-none-eabi/lib/thumb/v6-m/nofp/libg.a(lib_a-memcmp.o)
 .debug_aranges
                0x0000000000001690       0x20 /usr/lib/gcc/arm-none-eabi/10.3.1/../../../arm-none-eabi/lib/thumb/v6-m/nofp/libg.a(lib_a-reent.o)
 .debug_aranges
                0x00000000000016b0       0x20 /usr/lib/gcc/arm-none-eabi/10.3.1/../../../arm-none-eabi/lib/thumb/v6-m/nofp/libg.a(lib_a-strnlen.o)

.debug_ranges   0x0000000000000000     0x4578
 .debug_ranges  0x0000000000000000      0x4e8 CMakeFiles/telitHost.dir/telitHost.c.obj
 .debug_ranges  0x00000000000004e8       0xe0 CMakeFiles/telitHost.dir/mnt/LinuxApps/PicoSDK/pico-sdk/src/rp2_common/hardware_gpio/gpio.c.obj
 .debug_ranges  0x00000000000005c8       0xd8 CMakeFiles/telitHost.dir/mnt/LinuxApps/PicoSDK/pico-sdk/src/rp2_common/hardware_claim/claim.c.obj
 .debug_ranges  0x00000000000006a0       0x18 CMakeFiles/telitHost.dir/mnt/LinuxApps/PicoSDK/pico-sdk/src/rp2_common/pico_platform/platform.c.obj
 .debug_ranges  0x00000000000006b8       0xf0 CMakeFiles/telitHost.dir/mnt/LinuxApps/PicoSDK/pico-sdk/src/rp2_common/hardware_sync/sync.c.obj
 .debug_ranges  0x00000000000007a8       0xf8 CMakeFiles/telitHost.dir/mnt/LinuxApps/PicoSDK/pico-sdk/src/rp2_common/hardware_uart/uart.c.obj
 .debug_ranges  0x00000000000008a0      0xba0 CMakeFiles/telitHost.dir/mnt/LinuxApps/PicoSDK/pico-sdk/src/common/pico_time/time.c.obj
 .debug_ranges  0x0000000000001440      0x320 CMakeFiles/telitHost.dir/mnt/LinuxApps/PicoSDK/pico-sdk/src/rp2_common/hardware_timer/timer.c.obj
 .debug_ranges  0x0000000000001760       0x10 CMakeFiles/telitHost.dir/mnt/LinuxApps/PicoSDK/pico-sdk/src/common/pico_sync/lock_core.c.obj
 .debug_ranges  0x0000000000001770      0xab8 CMakeFiles/telitHost.dir/mnt/LinuxApps/PicoSDK/pico-sdk/src/common/pico_sync/mutex.c.obj
 .debug_ranges  0x0000000000002228       0x38 CMakeFiles/telitHost.dir/mnt/LinuxApps/PicoSDK/pico-sdk/src/common/pico_sync/critical_section.c.obj
 .debug_ranges  0x0000000000002260      0x248 CMakeFiles/telitHost.dir/mnt/LinuxApps/PicoSDK/pico-sdk/src/common/pico_util/pheap.c.obj
 .debug_ranges  0x00000000000024a8       0x80 CMakeFiles/telitHost.dir/mnt/LinuxApps/PicoSDK/pico-sdk/src/rp2_common/pico_runtime/runtime.c.obj
 .debug_ranges  0x0000000000002528       0x60 CMakeFiles/telitHost.dir/mnt/LinuxApps/PicoSDK/pico-sdk/src/rp2_common/hardware_clocks/clocks.c.obj
 .debug_ranges  0x0000000000002588      0x3d0 CMakeFiles/telitHost.dir/mnt/LinuxApps/PicoSDK/pico-sdk/src/rp2_common/hardware_irq/irq.c.obj
 .debug_ranges  0x0000000000002958       0x30 CMakeFiles/telitHost.dir/mnt/LinuxApps/PicoSDK/pico-sdk/src/rp2_common/hardware_pll/pll.c.obj
 .debug_ranges  0x0000000000002988       0x48 CMakeFiles/telitHost.dir/mnt/LinuxApps/PicoSDK/pico-sdk/src/rp2_common/hardware_watchdog/watchdog.c.obj
 .debug_ranges  0x00000000000029d0       0x20 CMakeFiles/telitHost.dir/mnt/LinuxApps/PicoSDK/pico-sdk/src/rp2_common/hardware_xosc/xosc.c.obj
 .debug_ranges  0x00000000000029f0      0x108 CMakeFiles/telitHost.dir/mnt/LinuxApps/PicoSDK/pico-sdk/src/rp2_common/pico_printf/printf.c.obj
 .debug_ranges  0x0000000000002af8       0x60 CMakeFiles/telitHost.dir/mnt/LinuxApps/PicoSDK/pico-sdk/src/rp2_common/pico_bit_ops/bit_ops_aeabi.S.obj
 .debug_ranges  0x0000000000002b58       0x38 CMakeFiles/telitHost.dir/mnt/LinuxApps/PicoSDK/pico-sdk/src/rp2_common/pico_bootrom/bootrom.c.obj
 .debug_ranges  0x0000000000002b90       0x38 CMakeFiles/telitHost.dir/mnt/LinuxApps/PicoSDK/pico-sdk/src/rp2_common/pico_divider/divider.S.obj
 .debug_ranges  0x0000000000002bc8      0x138 CMakeFiles/telitHost.dir/mnt/LinuxApps/PicoSDK/pico-sdk/src/rp2_common/pico_double/double_aeabi.S.obj
 .debug_ranges  0x0000000000002d00       0x30 CMakeFiles/telitHost.dir/mnt/LinuxApps/PicoSDK/pico-sdk/src/rp2_common/pico_double/double_init_rom.c.obj
 .debug_ranges  0x0000000000002d30       0xc0 CMakeFiles/telitHost.dir/mnt/LinuxApps/PicoSDK/pico-sdk/src/rp2_common/pico_double/double_v1_rom_shim.S.obj
 .debug_ranges  0x0000000000002df0      0x128 CMakeFiles/telitHost.dir/mnt/LinuxApps/PicoSDK/pico-sdk/src/rp2_common/pico_float/float_aeabi.S.obj
 .debug_ranges  0x0000000000002f18       0x28 CMakeFiles/telitHost.dir/mnt/LinuxApps/PicoSDK/pico-sdk/src/rp2_common/pico_float/float_init_rom.c.obj
 .debug_ranges  0x0000000000002f40       0x48 CMakeFiles/telitHost.dir/mnt/LinuxApps/PicoSDK/pico-sdk/src/rp2_common/pico_float/float_v1_rom_shim.S.obj
 .debug_ranges  0x0000000000002f88       0x50 CMakeFiles/telitHost.dir/mnt/LinuxApps/PicoSDK/pico-sdk/src/rp2_common/pico_malloc/pico_malloc.c.obj
 .debug_ranges  0x0000000000002fd8       0x30 CMakeFiles/telitHost.dir/mnt/LinuxApps/PicoSDK/pico-sdk/src/rp2_common/pico_mem_ops/mem_ops_aeabi.S.obj
 .debug_ranges  0x0000000000003008       0x20 CMakeFiles/telitHost.dir/mnt/LinuxApps/PicoSDK/pico-sdk/src/rp2_common/pico_standard_link/crt0.S.obj
 .debug_ranges  0x0000000000003028      0x1b0 CMakeFiles/telitHost.dir/mnt/LinuxApps/PicoSDK/pico-sdk/src/rp2_common/pico_stdio/stdio.c.obj
 .debug_ranges  0x00000000000031d8       0x48 CMakeFiles/telitHost.dir/mnt/LinuxApps/PicoSDK/pico-sdk/src/rp2_common/pico_stdio_usb/reset_interface.c.obj
 .debug_ranges  0x0000000000003220       0xe0 CMakeFiles/telitHost.dir/mnt/LinuxApps/PicoSDK/pico-sdk/src/rp2_common/pico_stdio_usb/stdio_usb.c.obj
 .debug_ranges  0x0000000000003300       0x20 CMakeFiles/telitHost.dir/mnt/LinuxApps/PicoSDK/pico-sdk/src/rp2_common/pico_stdio_usb/stdio_usb_descriptors.c.obj
 .debug_ranges  0x0000000000003320       0xf0 CMakeFiles/telitHost.dir/mnt/LinuxApps/PicoSDK/pico-sdk/lib/tinyusb/src/portable/raspberrypi/rp2040/dcd_rp2040.c.obj
 .debug_ranges  0x0000000000003410       0x68 CMakeFiles/telitHost.dir/mnt/LinuxApps/PicoSDK/pico-sdk/lib/tinyusb/src/portable/raspberrypi/rp2040/rp2040_usb.c.obj
 .debug_ranges  0x0000000000003478      0xb48 CMakeFiles/telitHost.dir/mnt/LinuxApps/PicoSDK/pico-sdk/lib/tinyusb/src/device/usbd.c.obj
 .debug_ranges  0x0000000000003fc0       0x88 CMakeFiles/telitHost.dir/mnt/LinuxApps/PicoSDK/pico-sdk/lib/tinyusb/src/device/usbd_control.c.obj
 .debug_ranges  0x0000000000004048      0x110 CMakeFiles/telitHost.dir/mnt/LinuxApps/PicoSDK/pico-sdk/lib/tinyusb/src/class/cdc/cdc_device.c.obj
 .debug_ranges  0x0000000000004158       0xd0 CMakeFiles/telitHost.dir/mnt/LinuxApps/PicoSDK/pico-sdk/lib/tinyusb/src/tusb.c.obj
 .debug_ranges  0x0000000000004228      0x138 CMakeFiles/telitHost.dir/mnt/LinuxApps/PicoSDK/pico-sdk/lib/tinyusb/src/common/tusb_fifo.c.obj
 .debug_ranges  0x0000000000004360       0x38 CMakeFiles/telitHost.dir/mnt/LinuxApps/PicoSDK/pico-sdk/src/rp2_common/pico_unique_id/unique_id.c.obj
 .debug_ranges  0x0000000000004398       0x58 CMakeFiles/telitHost.dir/mnt/LinuxApps/PicoSDK/pico-sdk/src/rp2_common/hardware_flash/flash.c.obj
 .debug_ranges  0x00000000000043f0       0x50 /usr/lib/gcc/arm-none-eabi/10.3.1/../../../arm-none-eabi/lib/thumb/v6-m/nofp/libg.a(lib_a-mallocr.o)
 .debug_ranges  0x0000000000004440       0x10 /usr/lib/gcc/arm-none-eabi/10.3.1/../../../arm-none-eabi/lib/thumb/v6-m/nofp/libg.a(lib_a-strcpy.o)
 .debug_ranges  0x0000000000004450       0xa8 /usr/lib/gcc/arm-none-eabi/10.3.1/../../../arm-none-eabi/lib/thumb/v6-m/nofp/libg.a(lib_a-strstr.o)
 .debug_ranges  0x00000000000044f8       0x70 /usr/lib/gcc/arm-none-eabi/10.3.1/../../../arm-none-eabi/lib/thumb/v6-m/nofp/libg.a(lib_a-strtol.o)
 .debug_ranges  0x0000000000004568       0x10 /usr/lib/gcc/arm-none-eabi/10.3.1/../../../arm-none-eabi/lib/thumb/v6-m/nofp/libg.a(lib_a-strnlen.o)

.debug_line     0x0000000000000000    0x18613
 .debug_line    0x0000000000000000     0x1a0e CMakeFiles/telitHost.dir/telitHost.c.obj
 .debug_line    0x0000000000001a0e      0x983 CMakeFiles/telitHost.dir/mnt/LinuxApps/PicoSDK/pico-sdk/src/rp2_common/hardware_gpio/gpio.c.obj
 .debug_line    0x0000000000002391      0x3e7 CMakeFiles/telitHost.dir/mnt/LinuxApps/PicoSDK/pico-sdk/src/rp2_common/hardware_claim/claim.c.obj
 .debug_line    0x0000000000002778      0x1f1 CMakeFiles/telitHost.dir/mnt/LinuxApps/PicoSDK/pico-sdk/src/rp2_common/pico_platform/platform.c.obj
 .debug_line    0x0000000000002969      0x3e3 CMakeFiles/telitHost.dir/mnt/LinuxApps/PicoSDK/pico-sdk/src/rp2_common/hardware_sync/sync.c.obj
 .debug_line    0x0000000000002d4c      0x6e9 CMakeFiles/telitHost.dir/mnt/LinuxApps/PicoSDK/pico-sdk/src/rp2_common/hardware_uart/uart.c.obj
 .debug_line    0x0000000000003435     0x18a3 CMakeFiles/telitHost.dir/mnt/LinuxApps/PicoSDK/pico-sdk/src/common/pico_time/time.c.obj
 .debug_line    0x0000000000004cd8      0xa70 CMakeFiles/telitHost.dir/mnt/LinuxApps/PicoSDK/pico-sdk/src/rp2_common/hardware_timer/timer.c.obj
 .debug_line    0x0000000000005748      0x1bd CMakeFiles/telitHost.dir/mnt/LinuxApps/PicoSDK/pico-sdk/src/common/pico_sync/lock_core.c.obj
 .debug_line    0x0000000000005905      0xf6f CMakeFiles/telitHost.dir/mnt/LinuxApps/PicoSDK/pico-sdk/src/common/pico_sync/mutex.c.obj
 .debug_line    0x0000000000006874      0x248 CMakeFiles/telitHost.dir/mnt/LinuxApps/PicoSDK/pico-sdk/src/common/pico_sync/critical_section.c.obj
 .debug_line    0x0000000000006abc      0x81f CMakeFiles/telitHost.dir/mnt/LinuxApps/PicoSDK/pico-sdk/src/common/pico_util/pheap.c.obj
 .debug_line    0x00000000000072db      0x7b4 CMakeFiles/telitHost.dir/mnt/LinuxApps/PicoSDK/pico-sdk/src/rp2_common/pico_runtime/runtime.c.obj
 .debug_line    0x0000000000007a8f      0x93b CMakeFiles/telitHost.dir/mnt/LinuxApps/PicoSDK/pico-sdk/src/rp2_common/hardware_clocks/clocks.c.obj
 .debug_line    0x00000000000083ca      0xe18 CMakeFiles/telitHost.dir/mnt/LinuxApps/PicoSDK/pico-sdk/src/rp2_common/hardware_irq/irq.c.obj
 .debug_line    0x00000000000091e2      0x4cd CMakeFiles/telitHost.dir/mnt/LinuxApps/PicoSDK/pico-sdk/src/rp2_common/hardware_pll/pll.c.obj
 .debug_line    0x00000000000096af      0x3c0 CMakeFiles/telitHost.dir/mnt/LinuxApps/PicoSDK/pico-sdk/src/rp2_common/hardware_watchdog/watchdog.c.obj
 .debug_line    0x0000000000009a6f      0x245 CMakeFiles/telitHost.dir/mnt/LinuxApps/PicoSDK/pico-sdk/src/rp2_common/hardware_xosc/xosc.c.obj
 .debug_line    0x0000000000009cb4     0x1167 CMakeFiles/telitHost.dir/mnt/LinuxApps/PicoSDK/pico-sdk/src/rp2_common/pico_printf/printf.c.obj
 .debug_line    0x000000000000ae1b      0x14c CMakeFiles/telitHost.dir/mnt/LinuxApps/PicoSDK/pico-sdk/src/rp2_common/pico_bit_ops/bit_ops_aeabi.S.obj
 .debug_line    0x000000000000af67      0x1c8 CMakeFiles/telitHost.dir/mnt/LinuxApps/PicoSDK/pico-sdk/src/rp2_common/pico_bootrom/bootrom.c.obj
 .debug_line    0x000000000000b12f      0x2d5 CMakeFiles/telitHost.dir/mnt/LinuxApps/PicoSDK/pico-sdk/src/rp2_common/pico_divider/divider.S.obj
 .debug_line    0x000000000000b404      0x42a CMakeFiles/telitHost.dir/mnt/LinuxApps/PicoSDK/pico-sdk/src/rp2_common/pico_double/double_aeabi.S.obj
 .debug_line    0x000000000000b82e      0x2c0 CMakeFiles/telitHost.dir/mnt/LinuxApps/PicoSDK/pico-sdk/src/rp2_common/pico_double/double_init_rom.c.obj
 .debug_line    0x000000000000baee      0x6a0 CMakeFiles/telitHost.dir/mnt/LinuxApps/PicoSDK/pico-sdk/src/rp2_common/pico_double/double_v1_rom_shim.S.obj
 .debug_line    0x000000000000c18e       0x9c CMakeFiles/telitHost.dir/mnt/LinuxApps/PicoSDK/pico-sdk/src/rp2_common/pico_int64_ops/pico_int64_ops_aeabi.S.obj
 .debug_line    0x000000000000c22a      0x3e0 CMakeFiles/telitHost.dir/mnt/LinuxApps/PicoSDK/pico-sdk/src/rp2_common/pico_float/float_aeabi.S.obj
 .debug_line    0x000000000000c60a      0x2b2 CMakeFiles/telitHost.dir/mnt/LinuxApps/PicoSDK/pico-sdk/src/rp2_common/pico_float/float_init_rom.c.obj
 .debug_line    0x000000000000c8bc      0x1cc CMakeFiles/telitHost.dir/mnt/LinuxApps/PicoSDK/pico-sdk/src/rp2_common/pico_float/float_v1_rom_shim.S.obj
 .debug_line    0x000000000000ca88      0x1b6 CMakeFiles/telitHost.dir/mnt/LinuxApps/PicoSDK/pico-sdk/src/rp2_common/pico_malloc/pico_malloc.c.obj
 .debug_line    0x000000000000cc3e       0xc6 CMakeFiles/telitHost.dir/mnt/LinuxApps/PicoSDK/pico-sdk/src/rp2_common/pico_mem_ops/mem_ops_aeabi.S.obj
 .debug_line    0x000000000000cd04       0xd7 CMakeFiles/telitHost.dir/mnt/LinuxApps/PicoSDK/pico-sdk/src/rp2_common/pico_standard_link/crt0.S.obj
 .debug_line    0x000000000000cddb      0x157 CMakeFiles/telitHost.dir/mnt/LinuxApps/PicoSDK/pico-sdk/src/rp2_common/pico_standard_link/binary_info.c.obj
 .debug_line    0x000000000000cf32      0xcba CMakeFiles/telitHost.dir/mnt/LinuxApps/PicoSDK/pico-sdk/src/rp2_common/pico_stdio/stdio.c.obj
 .debug_line    0x000000000000dbec      0x412 CMakeFiles/telitHost.dir/mnt/LinuxApps/PicoSDK/pico-sdk/src/rp2_common/pico_stdio_usb/reset_interface.c.obj
 .debug_line    0x000000000000dffe      0x8b1 CMakeFiles/telitHost.dir/mnt/LinuxApps/PicoSDK/pico-sdk/src/rp2_common/pico_stdio_usb/stdio_usb.c.obj
 .debug_line    0x000000000000e8af      0x28a CMakeFiles/telitHost.dir/mnt/LinuxApps/PicoSDK/pico-sdk/src/rp2_common/pico_stdio_usb/stdio_usb_descriptors.c.obj
 .debug_line    0x000000000000eb39      0xb00 CMakeFiles/telitHost.dir/mnt/LinuxApps/PicoSDK/pico-sdk/lib/tinyusb/src/portable/raspberrypi/rp2040/dcd_rp2040.c.obj
 .debug_line    0x000000000000f639      0x82e CMakeFiles/telitHost.dir/mnt/LinuxApps/PicoSDK/pico-sdk/lib/tinyusb/src/portable/raspberrypi/rp2040/rp2040_usb.c.obj
 .debug_line    0x000000000000fe67     0x228f CMakeFiles/telitHost.dir/mnt/LinuxApps/PicoSDK/pico-sdk/lib/tinyusb/src/device/usbd.c.obj
 .debug_line    0x00000000000120f6      0x517 CMakeFiles/telitHost.dir/mnt/LinuxApps/PicoSDK/pico-sdk/lib/tinyusb/src/device/usbd_control.c.obj
 .debug_line    0x000000000001260d      0xe6b CMakeFiles/telitHost.dir/mnt/LinuxApps/PicoSDK/pico-sdk/lib/tinyusb/src/class/cdc/cdc_device.c.obj
 .debug_line    0x0000000000013478      0x6b6 CMakeFiles/telitHost.dir/mnt/LinuxApps/PicoSDK/pico-sdk/lib/tinyusb/src/tusb.c.obj
 .debug_line    0x0000000000013b2e     0x1434 CMakeFiles/telitHost.dir/mnt/LinuxApps/PicoSDK/pico-sdk/lib/tinyusb/src/common/tusb_fifo.c.obj
 .debug_line    0x0000000000014f62      0x2c6 CMakeFiles/telitHost.dir/mnt/LinuxApps/PicoSDK/pico-sdk/src/rp2_common/pico_unique_id/unique_id.c.obj
 .debug_line    0x0000000000015228      0x6ee CMakeFiles/telitHost.dir/mnt/LinuxApps/PicoSDK/pico-sdk/src/rp2_common/hardware_flash/flash.c.obj
 .debug_line    0x0000000000015916       0x60 /usr/lib/gcc/arm-none-eabi/10.3.1/thumb/v6-m/nofp/libgcc.a(_dvmd_tls.o)
 .debug_line    0x0000000000015976      0x15e /usr/lib/gcc/arm-none-eabi/10.3.1/../../../arm-none-eabi/lib/thumb/v6-m/nofp/libg.a(lib_a-atoi.o)
 .debug_line    0x0000000000015ad4       0x5e /usr/lib/gcc/arm-none-eabi/10.3.1/../../../arm-none-eabi/lib/thumb/v6-m/nofp/libg.a(lib_a-ctype_.o)
 .debug_line    0x0000000000015b32       0xe4 /usr/lib/gcc/arm-none-eabi/10.3.1/../../../arm-none-eabi/lib/thumb/v6-m/nofp/libg.a(lib_a-impure.o)
 .debug_line    0x0000000000015c16      0x165 /usr/lib/gcc/arm-none-eabi/10.3.1/../../../arm-none-eabi/lib/thumb/v6-m/nofp/libg.a(lib_a-malloc.o)
 .debug_line    0x0000000000015d7b      0x8e2 /usr/lib/gcc/arm-none-eabi/10.3.1/../../../arm-none-eabi/lib/thumb/v6-m/nofp/libg.a(lib_a-mallocr.o)
 .debug_line    0x000000000001665d      0x13e /usr/lib/gcc/arm-none-eabi/10.3.1/../../../arm-none-eabi/lib/thumb/v6-m/nofp/libg.a(lib_a-mlock.o)
 .debug_line    0x000000000001679b      0x183 /usr/lib/gcc/arm-none-eabi/10.3.1/../../../arm-none-eabi/lib/thumb/v6-m/nofp/libg.a(lib_a-sbrkr.o)
 .debug_line    0x000000000001691e      0x110 /usr/lib/gcc/arm-none-eabi/10.3.1/../../../arm-none-eabi/lib/thumb/v6-m/nofp/libg.a(lib_a-strcat.o)
 .debug_line    0x0000000000016a2e      0x1e0 /usr/lib/gcc/arm-none-eabi/10.3.1/../../../arm-none-eabi/lib/thumb/v6-m/nofp/libg.a(lib_a-strchr.o)
 .debug_line    0x0000000000016c0e       0xb7 /usr/lib/gcc/arm-none-eabi/10.3.1/../../../arm-none-eabi/lib/thumb/v6-m/nofp/libg.a(lib_a-strcpy.o)
 .debug_line    0x0000000000016cc5      0x172 /usr/lib/gcc/arm-none-eabi/10.3.1/../../../arm-none-eabi/lib/thumb/v6-m/nofp/libg.a(lib_a-strlen-stub.o)
 .debug_line    0x0000000000016e37      0x177 /usr/lib/gcc/arm-none-eabi/10.3.1/../../../arm-none-eabi/lib/thumb/v6-m/nofp/libg.a(lib_a-strncpy.o)
 .debug_line    0x0000000000016fae      0x7a1 /usr/lib/gcc/arm-none-eabi/10.3.1/../../../arm-none-eabi/lib/thumb/v6-m/nofp/libg.a(lib_a-strstr.o)
 .debug_line    0x000000000001774f      0x43f /usr/lib/gcc/arm-none-eabi/10.3.1/../../../arm-none-eabi/lib/thumb/v6-m/nofp/libg.a(lib_a-strtol.o)
 .debug_line    0x0000000000017b8e      0x10f /usr/lib/gcc/arm-none-eabi/10.3.1/../../../arm-none-eabi/lib/thumb/v6-m/nofp/libg.a(lib_a-errno.o)
 .debug_line    0x0000000000017c9d      0x47d /usr/lib/gcc/arm-none-eabi/10.3.1/../../../arm-none-eabi/lib/thumb/v6-m/nofp/libg.a(lib_a-freer.o)
 .debug_line    0x000000000001811a      0x167 /usr/lib/gcc/arm-none-eabi/10.3.1/../../../arm-none-eabi/lib/thumb/v6-m/nofp/libg.a(lib_a-memcmp.o)
 .debug_line    0x0000000000018281      0x27e /usr/lib/gcc/arm-none-eabi/10.3.1/../../../arm-none-eabi/lib/thumb/v6-m/nofp/libg.a(lib_a-reent.o)
 .debug_line    0x00000000000184ff      0x114 /usr/lib/gcc/arm-none-eabi/10.3.1/../../../arm-none-eabi/lib/thumb/v6-m/nofp/libg.a(lib_a-strnlen.o)

.debug_str      0x0000000000000000     0x7f78
 .debug_str     0x0000000000000000      0xd36 CMakeFiles/telitHost.dir/telitHost.c.obj
                                        0xe6f (size before relaxing)
 .debug_str     0x0000000000000d36      0x397 CMakeFiles/telitHost.dir/mnt/LinuxApps/PicoSDK/pico-sdk/src/rp2_common/hardware_gpio/gpio.c.obj
                                        0x883 (size before relaxing)
 .debug_str     0x00000000000010cd      0x1c7 CMakeFiles/telitHost.dir/mnt/LinuxApps/PicoSDK/pico-sdk/src/rp2_common/hardware_claim/claim.c.obj
                                        0x366 (size before relaxing)
 .debug_str     0x0000000000001294       0x86 CMakeFiles/telitHost.dir/mnt/LinuxApps/PicoSDK/pico-sdk/src/rp2_common/pico_platform/platform.c.obj
                                        0x222 (size before relaxing)
 .debug_str     0x000000000000131a       0xf1 CMakeFiles/telitHost.dir/mnt/LinuxApps/PicoSDK/pico-sdk/src/rp2_common/hardware_sync/sync.c.obj
                                        0x34d (size before relaxing)
 .debug_str     0x000000000000140b      0x1b5 CMakeFiles/telitHost.dir/mnt/LinuxApps/PicoSDK/pico-sdk/src/rp2_common/hardware_uart/uart.c.obj
                                        0x538 (size before relaxing)
 .debug_str     0x00000000000015c0      0x708 CMakeFiles/telitHost.dir/mnt/LinuxApps/PicoSDK/pico-sdk/src/common/pico_time/time.c.obj
                                        0xb79 (size before relaxing)
 .debug_str     0x0000000000001cc8      0x187 CMakeFiles/telitHost.dir/mnt/LinuxApps/PicoSDK/pico-sdk/src/rp2_common/hardware_timer/timer.c.obj
                                        0x67a (size before relaxing)
 .debug_str     0x0000000000001e4f       0x41 CMakeFiles/telitHost.dir/mnt/LinuxApps/PicoSDK/pico-sdk/src/common/pico_sync/lock_core.c.obj
                                        0x20d (size before relaxing)
 .debug_str     0x0000000000001e90      0x16a CMakeFiles/telitHost.dir/mnt/LinuxApps/PicoSDK/pico-sdk/src/common/pico_sync/mutex.c.obj
                                        0x5b3 (size before relaxing)
 .debug_str     0x0000000000001ffa       0xd9 CMakeFiles/telitHost.dir/mnt/LinuxApps/PicoSDK/pico-sdk/src/common/pico_sync/critical_section.c.obj
                                        0x2cd (size before relaxing)
 .debug_str     0x00000000000020d3       0xf1 CMakeFiles/telitHost.dir/mnt/LinuxApps/PicoSDK/pico-sdk/src/common/pico_util/pheap.c.obj
                                        0x401 (size before relaxing)
 .debug_str     0x00000000000021c4      0x1fe CMakeFiles/telitHost.dir/mnt/LinuxApps/PicoSDK/pico-sdk/src/rp2_common/pico_runtime/runtime.c.obj
                                        0x61a (size before relaxing)
 .debug_str     0x00000000000023c2      0x260 CMakeFiles/telitHost.dir/mnt/LinuxApps/PicoSDK/pico-sdk/src/rp2_common/hardware_clocks/clocks.c.obj
                                        0x662 (size before relaxing)
 .debug_str     0x0000000000002622      0x2f6 CMakeFiles/telitHost.dir/mnt/LinuxApps/PicoSDK/pico-sdk/src/rp2_common/hardware_irq/irq.c.obj
                                        0x6b8 (size before relaxing)
 .debug_str     0x0000000000002918       0x94 CMakeFiles/telitHost.dir/mnt/LinuxApps/PicoSDK/pico-sdk/src/rp2_common/hardware_pll/pll.c.obj
                                        0x2db (size before relaxing)
 .debug_str     0x00000000000029ac      0x12b CMakeFiles/telitHost.dir/mnt/LinuxApps/PicoSDK/pico-sdk/src/rp2_common/hardware_watchdog/watchdog.c.obj
                                        0x339 (size before relaxing)
 .debug_str     0x0000000000002ad7       0x70 CMakeFiles/telitHost.dir/mnt/LinuxApps/PicoSDK/pico-sdk/src/rp2_common/hardware_xosc/xosc.c.obj
                                        0x21f (size before relaxing)
 .debug_str     0x0000000000002b47      0x260 CMakeFiles/telitHost.dir/mnt/LinuxApps/PicoSDK/pico-sdk/src/rp2_common/pico_printf/printf.c.obj
                                        0x480 (size before relaxing)
 .debug_str     0x0000000000002da7       0x58 CMakeFiles/telitHost.dir/mnt/LinuxApps/PicoSDK/pico-sdk/src/rp2_common/pico_bit_ops/bit_ops_aeabi.S.obj
                                         0x91 (size before relaxing)
 .debug_str     0x0000000000002dff       0xc9 CMakeFiles/telitHost.dir/mnt/LinuxApps/PicoSDK/pico-sdk/src/rp2_common/pico_bootrom/bootrom.c.obj
                                        0x24f (size before relaxing)
 .debug_str     0x0000000000002ec8       0x46 CMakeFiles/telitHost.dir/mnt/LinuxApps/PicoSDK/pico-sdk/src/rp2_common/pico_divider/divider.S.obj
                                         0x8b (size before relaxing)
 .debug_str     0x0000000000002f0e       0x4a CMakeFiles/telitHost.dir/mnt/LinuxApps/PicoSDK/pico-sdk/src/rp2_common/pico_double/double_aeabi.S.obj
                                         0x8f (size before relaxing)
 .debug_str     0x0000000000002f58       0xa2 CMakeFiles/telitHost.dir/mnt/LinuxApps/PicoSDK/pico-sdk/src/rp2_common/pico_double/double_init_rom.c.obj
                                        0x284 (size before relaxing)
 .debug_str     0x0000000000002ffa       0x50 CMakeFiles/telitHost.dir/mnt/LinuxApps/PicoSDK/pico-sdk/src/rp2_common/pico_double/double_v1_rom_shim.S.obj
                                         0x95 (size before relaxing)
 .debug_str     0x000000000000304a       0x55 CMakeFiles/telitHost.dir/mnt/LinuxApps/PicoSDK/pico-sdk/src/rp2_common/pico_int64_ops/pico_int64_ops_aeabi.S.obj
                                         0x9a (size before relaxing)
 .debug_str     0x000000000000309f       0x48 CMakeFiles/telitHost.dir/mnt/LinuxApps/PicoSDK/pico-sdk/src/rp2_common/pico_float/float_aeabi.S.obj
                                         0x8d (size before relaxing)
 .debug_str     0x00000000000030e7       0x86 CMakeFiles/telitHost.dir/mnt/LinuxApps/PicoSDK/pico-sdk/src/rp2_common/pico_float/float_init_rom.c.obj
                                        0x2a0 (size before relaxing)
 .debug_str     0x000000000000316d       0x4e CMakeFiles/telitHost.dir/mnt/LinuxApps/PicoSDK/pico-sdk/src/rp2_common/pico_float/float_v1_rom_shim.S.obj
                                         0x93 (size before relaxing)
 .debug_str     0x00000000000031bb       0xa5 CMakeFiles/telitHost.dir/mnt/LinuxApps/PicoSDK/pico-sdk/src/rp2_common/pico_malloc/pico_malloc.c.obj
                                        0x227 (size before relaxing)
 .debug_str     0x0000000000003260       0x4c CMakeFiles/telitHost.dir/mnt/LinuxApps/PicoSDK/pico-sdk/src/rp2_common/pico_mem_ops/mem_ops_aeabi.S.obj
                                         0x91 (size before relaxing)
 .debug_str     0x00000000000032ac       0x49 CMakeFiles/telitHost.dir/mnt/LinuxApps/PicoSDK/pico-sdk/src/rp2_common/pico_standard_link/crt0.S.obj
                                         0x8e (size before relaxing)
 .debug_str     0x00000000000032f5      0x23e CMakeFiles/telitHost.dir/mnt/LinuxApps/PicoSDK/pico-sdk/src/rp2_common/pico_standard_link/binary_info.c.obj
                                        0x3ce (size before relaxing)
 .debug_str     0x0000000000003533      0x2ef CMakeFiles/telitHost.dir/mnt/LinuxApps/PicoSDK/pico-sdk/src/rp2_common/pico_stdio/stdio.c.obj
                                        0x77f (size before relaxing)
 .debug_str     0x0000000000003822      0x64a CMakeFiles/telitHost.dir/mnt/LinuxApps/PicoSDK/pico-sdk/src/rp2_common/pico_stdio_usb/reset_interface.c.obj
                                        0x85a (size before relaxing)
 .debug_str     0x0000000000003e6c      0x22a CMakeFiles/telitHost.dir/mnt/LinuxApps/PicoSDK/pico-sdk/src/rp2_common/pico_stdio_usb/stdio_usb.c.obj
                                        0x82b (size before relaxing)
 .debug_str     0x0000000000004096      0xae7 CMakeFiles/telitHost.dir/mnt/LinuxApps/PicoSDK/pico-sdk/src/rp2_common/pico_stdio_usb/stdio_usb_descriptors.c.obj
                                        0xf8b (size before relaxing)
 .debug_str     0x0000000000004b7d      0x91b CMakeFiles/telitHost.dir/mnt/LinuxApps/PicoSDK/pico-sdk/lib/tinyusb/src/portable/raspberrypi/rp2040/dcd_rp2040.c.obj
                                        0xddc (size before relaxing)
 .debug_str     0x0000000000005498      0x13f CMakeFiles/telitHost.dir/mnt/LinuxApps/PicoSDK/pico-sdk/lib/tinyusb/src/portable/raspberrypi/rp2040/rp2040_usb.c.obj
                                        0x83b (size before relaxing)
 .debug_str     0x00000000000055d7      0x9c8 CMakeFiles/telitHost.dir/mnt/LinuxApps/PicoSDK/pico-sdk/lib/tinyusb/src/device/usbd.c.obj
                                       0x183c (size before relaxing)
 .debug_str     0x0000000000005f9f       0xf0 CMakeFiles/telitHost.dir/mnt/LinuxApps/PicoSDK/pico-sdk/lib/tinyusb/src/device/usbd_control.c.obj
                                        0x61f (size before relaxing)
 .debug_str     0x000000000000608f      0x728 CMakeFiles/telitHost.dir/mnt/LinuxApps/PicoSDK/pico-sdk/lib/tinyusb/src/class/cdc/cdc_device.c.obj
                                       0x1653 (size before relaxing)
 .debug_str     0x00000000000067b7       0xca CMakeFiles/telitHost.dir/mnt/LinuxApps/PicoSDK/pico-sdk/lib/tinyusb/src/tusb.c.obj
                                        0x8b8 (size before relaxing)
 .debug_str     0x0000000000006881      0x390 CMakeFiles/telitHost.dir/mnt/LinuxApps/PicoSDK/pico-sdk/lib/tinyusb/src/common/tusb_fifo.c.obj
                                        0x773 (size before relaxing)
 .debug_str     0x0000000000006c11       0xc5 CMakeFiles/telitHost.dir/mnt/LinuxApps/PicoSDK/pico-sdk/src/rp2_common/pico_unique_id/unique_id.c.obj
                                        0x280 (size before relaxing)
 .debug_str     0x0000000000006cd6      0x30d CMakeFiles/telitHost.dir/mnt/LinuxApps/PicoSDK/pico-sdk/src/rp2_common/hardware_flash/flash.c.obj
                                        0x5cd (size before relaxing)
 .debug_str     0x0000000000006fe3       0xa6 /usr/lib/gcc/arm-none-eabi/10.3.1/thumb/v6-m/nofp/libgcc.a(_dvmd_tls.o)
 .debug_str     0x0000000000007089      0x46a /usr/lib/gcc/arm-none-eabi/10.3.1/../../../arm-none-eabi/lib/thumb/v6-m/nofp/libg.a(lib_a-atoi.o)
                                        0x56e (size before relaxing)
 .debug_str     0x00000000000074f3       0x8b /usr/lib/gcc/arm-none-eabi/10.3.1/../../../arm-none-eabi/lib/thumb/v6-m/nofp/libg.a(lib_a-ctype_.o)
                                        0x198 (size before relaxing)
 .debug_str     0x000000000000757e       0xaa /usr/lib/gcc/arm-none-eabi/10.3.1/../../../arm-none-eabi/lib/thumb/v6-m/nofp/libg.a(lib_a-impure.o)
                                        0x57b (size before relaxing)
 .debug_str     0x0000000000007628       0x52 /usr/lib/gcc/arm-none-eabi/10.3.1/../../../arm-none-eabi/lib/thumb/v6-m/nofp/libg.a(lib_a-malloc.o)
                                        0x58f (size before relaxing)
 .debug_str     0x000000000000767a      0x20d /usr/lib/gcc/arm-none-eabi/10.3.1/../../../arm-none-eabi/lib/thumb/v6-m/nofp/libg.a(lib_a-mallocr.o)
                                        0x780 (size before relaxing)
 .debug_str     0x0000000000007887       0x4c /usr/lib/gcc/arm-none-eabi/10.3.1/../../../arm-none-eabi/lib/thumb/v6-m/nofp/libg.a(lib_a-mlock.o)
                                        0x588 (size before relaxing)
 .debug_str     0x00000000000078d3       0x3c /usr/lib/gcc/arm-none-eabi/10.3.1/../../../arm-none-eabi/lib/thumb/v6-m/nofp/libg.a(lib_a-sbrkr.o)
                                        0x572 (size before relaxing)
 .debug_str     0x000000000000790f       0x9f /usr/lib/gcc/arm-none-eabi/10.3.1/../../../arm-none-eabi/lib/thumb/v6-m/nofp/libg.a(lib_a-strcat.o)
                                        0x1ab (size before relaxing)
 .debug_str     0x00000000000079ae       0x41 /usr/lib/gcc/arm-none-eabi/10.3.1/../../../arm-none-eabi/lib/thumb/v6-m/nofp/libg.a(lib_a-strchr.o)
                                        0x1ab (size before relaxing)
 .debug_str     0x00000000000079ef       0x9a /usr/lib/gcc/arm-none-eabi/10.3.1/../../../arm-none-eabi/lib/thumb/v6-m/nofp/libg.a(lib_a-strcpy.o)
                                        0x1a6 (size before relaxing)
 .debug_str     0x0000000000007a89       0x41 /usr/lib/gcc/arm-none-eabi/10.3.1/../../../arm-none-eabi/lib/thumb/v6-m/nofp/libg.a(lib_a-strlen-stub.o)
                                        0x1c5 (size before relaxing)
 .debug_str     0x0000000000007aca       0x57 /usr/lib/gcc/arm-none-eabi/10.3.1/../../../arm-none-eabi/lib/thumb/v6-m/nofp/libg.a(lib_a-strncpy.o)
                                        0x1ca (size before relaxing)
 .debug_str     0x0000000000007b21       0xef /usr/lib/gcc/arm-none-eabi/10.3.1/../../../arm-none-eabi/lib/thumb/v6-m/nofp/libg.a(lib_a-strstr.o)
                                        0x2a4 (size before relaxing)
 .debug_str     0x0000000000007c10      0x1e3 /usr/lib/gcc/arm-none-eabi/10.3.1/../../../arm-none-eabi/lib/thumb/v6-m/nofp/libg.a(lib_a-strtol.o)
                                        0x7e7 (size before relaxing)
 .debug_str     0x0000000000007df3       0x8a /usr/lib/gcc/arm-none-eabi/10.3.1/../../../arm-none-eabi/lib/thumb/v6-m/nofp/libg.a(lib_a-errno.o)
                                        0x563 (size before relaxing)
 .debug_str     0x0000000000007e7d       0x34 /usr/lib/gcc/arm-none-eabi/10.3.1/../../../arm-none-eabi/lib/thumb/v6-m/nofp/libg.a(lib_a-freer.o)
                                        0x6ca (size before relaxing)
 .debug_str     0x0000000000007eb1       0x34 /usr/lib/gcc/arm-none-eabi/10.3.1/../../../arm-none-eabi/lib/thumb/v6-m/nofp/libg.a(lib_a-memcmp.o)
                                        0x1a0 (size before relaxing)
 .debug_str     0x0000000000007ee5       0x5e /usr/lib/gcc/arm-none-eabi/10.3.1/../../../arm-none-eabi/lib/thumb/v6-m/nofp/libg.a(lib_a-reent.o)
                                        0x59a (size before relaxing)
 .debug_str     0x0000000000007f43       0x35 /usr/lib/gcc/arm-none-eabi/10.3.1/../../../arm-none-eabi/lib/thumb/v6-m/nofp/libg.a(lib_a-strnlen.o)
                                        0x1a8 (size before relaxing)

.debug_frame    0x0000000000000000     0x2dd0
 .debug_frame   0x0000000000000000      0x378 CMakeFiles/telitHost.dir/telitHost.c.obj
 .debug_frame   0x0000000000000378      0x1e8 CMakeFiles/telitHost.dir/mnt/LinuxApps/PicoSDK/pico-sdk/src/rp2_common/hardware_gpio/gpio.c.obj
 .debug_frame   0x0000000000000560       0x9c CMakeFiles/telitHost.dir/mnt/LinuxApps/PicoSDK/pico-sdk/src/rp2_common/hardware_claim/claim.c.obj
 .debug_frame   0x00000000000005fc       0x38 CMakeFiles/telitHost.dir/mnt/LinuxApps/PicoSDK/pico-sdk/src/rp2_common/pico_platform/platform.c.obj
 .debug_frame   0x0000000000000634       0xc4 CMakeFiles/telitHost.dir/mnt/LinuxApps/PicoSDK/pico-sdk/src/rp2_common/hardware_sync/sync.c.obj
 .debug_frame   0x00000000000006f8       0x78 CMakeFiles/telitHost.dir/mnt/LinuxApps/PicoSDK/pico-sdk/src/rp2_common/hardware_uart/uart.c.obj
 .debug_frame   0x0000000000000770      0x294 CMakeFiles/telitHost.dir/mnt/LinuxApps/PicoSDK/pico-sdk/src/common/pico_time/time.c.obj
 .debug_frame   0x0000000000000a04      0x134 CMakeFiles/telitHost.dir/mnt/LinuxApps/PicoSDK/pico-sdk/src/rp2_common/hardware_timer/timer.c.obj
 .debug_frame   0x0000000000000b38       0x20 CMakeFiles/telitHost.dir/mnt/LinuxApps/PicoSDK/pico-sdk/src/common/pico_sync/lock_core.c.obj
 .debug_frame   0x0000000000000b58      0x1a0 CMakeFiles/telitHost.dir/mnt/LinuxApps/PicoSDK/pico-sdk/src/common/pico_sync/mutex.c.obj
 .debug_frame   0x0000000000000cf8       0x50 CMakeFiles/telitHost.dir/mnt/LinuxApps/PicoSDK/pico-sdk/src/common/pico_sync/critical_section.c.obj
 .debug_frame   0x0000000000000d48      0x164 CMakeFiles/telitHost.dir/mnt/LinuxApps/PicoSDK/pico-sdk/src/common/pico_util/pheap.c.obj
 .debug_frame   0x0000000000000eac       0xdc CMakeFiles/telitHost.dir/mnt/LinuxApps/PicoSDK/pico-sdk/src/rp2_common/pico_runtime/runtime.c.obj
 .debug_frame   0x0000000000000f88      0x12c CMakeFiles/telitHost.dir/mnt/LinuxApps/PicoSDK/pico-sdk/src/rp2_common/hardware_clocks/clocks.c.obj
 .debug_frame   0x00000000000010b4      0x184 CMakeFiles/telitHost.dir/mnt/LinuxApps/PicoSDK/pico-sdk/src/rp2_common/hardware_irq/irq.c.obj
 .debug_frame   0x0000000000001238       0x44 CMakeFiles/telitHost.dir/mnt/LinuxApps/PicoSDK/pico-sdk/src/rp2_common/hardware_pll/pll.c.obj
 .debug_frame   0x000000000000127c       0xa8 CMakeFiles/telitHost.dir/mnt/LinuxApps/PicoSDK/pico-sdk/src/rp2_common/hardware_watchdog/watchdog.c.obj
 .debug_frame   0x0000000000001324       0x40 CMakeFiles/telitHost.dir/mnt/LinuxApps/PicoSDK/pico-sdk/src/rp2_common/hardware_xosc/xosc.c.obj
 .debug_frame   0x0000000000001364      0x1f8 CMakeFiles/telitHost.dir/mnt/LinuxApps/PicoSDK/pico-sdk/src/rp2_common/pico_printf/printf.c.obj
 .debug_frame   0x000000000000155c       0x64 CMakeFiles/telitHost.dir/mnt/LinuxApps/PicoSDK/pico-sdk/src/rp2_common/pico_bootrom/bootrom.c.obj
 .debug_frame   0x00000000000015c0       0x2c CMakeFiles/telitHost.dir/mnt/LinuxApps/PicoSDK/pico-sdk/src/rp2_common/pico_double/double_init_rom.c.obj
 .debug_frame   0x00000000000015ec       0x2c CMakeFiles/telitHost.dir/mnt/LinuxApps/PicoSDK/pico-sdk/src/rp2_common/pico_float/float_init_rom.c.obj
 .debug_frame   0x0000000000001618       0x58 CMakeFiles/telitHost.dir/mnt/LinuxApps/PicoSDK/pico-sdk/src/rp2_common/pico_malloc/pico_malloc.c.obj
 .debug_frame   0x0000000000001670      0x270 CMakeFiles/telitHost.dir/mnt/LinuxApps/PicoSDK/pico-sdk/src/rp2_common/pico_stdio/stdio.c.obj
 .debug_frame   0x00000000000018e0       0xac CMakeFiles/telitHost.dir/mnt/LinuxApps/PicoSDK/pico-sdk/src/rp2_common/pico_stdio_usb/reset_interface.c.obj
 .debug_frame   0x000000000000198c       0xbc CMakeFiles/telitHost.dir/mnt/LinuxApps/PicoSDK/pico-sdk/src/rp2_common/pico_stdio_usb/stdio_usb.c.obj
 .debug_frame   0x0000000000001a48       0x48 CMakeFiles/telitHost.dir/mnt/LinuxApps/PicoSDK/pico-sdk/src/rp2_common/pico_stdio_usb/stdio_usb_descriptors.c.obj
 .debug_frame   0x0000000000001a90      0x238 CMakeFiles/telitHost.dir/mnt/LinuxApps/PicoSDK/pico-sdk/lib/tinyusb/src/portable/raspberrypi/rp2040/dcd_rp2040.c.obj
 .debug_frame   0x0000000000001cc8       0xf8 CMakeFiles/telitHost.dir/mnt/LinuxApps/PicoSDK/pico-sdk/lib/tinyusb/src/portable/raspberrypi/rp2040/rp2040_usb.c.obj
 .debug_frame   0x0000000000001dc0      0x3bc CMakeFiles/telitHost.dir/mnt/LinuxApps/PicoSDK/pico-sdk/lib/tinyusb/src/device/usbd.c.obj
 .debug_frame   0x000000000000217c       0xcc CMakeFiles/telitHost.dir/mnt/LinuxApps/PicoSDK/pico-sdk/lib/tinyusb/src/device/usbd_control.c.obj
 .debug_frame   0x0000000000002248      0x1f4 CMakeFiles/telitHost.dir/mnt/LinuxApps/PicoSDK/pico-sdk/lib/tinyusb/src/class/cdc/cdc_device.c.obj
 .debug_frame   0x000000000000243c       0xd4 CMakeFiles/telitHost.dir/mnt/LinuxApps/PicoSDK/pico-sdk/lib/tinyusb/src/tusb.c.obj
 .debug_frame   0x0000000000002510      0x398 CMakeFiles/telitHost.dir/mnt/LinuxApps/PicoSDK/pico-sdk/lib/tinyusb/src/common/tusb_fifo.c.obj
 .debug_frame   0x00000000000028a8       0x58 CMakeFiles/telitHost.dir/mnt/LinuxApps/PicoSDK/pico-sdk/src/rp2_common/pico_unique_id/unique_id.c.obj
 .debug_frame   0x0000000000002900       0xe4 CMakeFiles/telitHost.dir/mnt/LinuxApps/PicoSDK/pico-sdk/src/rp2_common/hardware_flash/flash.c.obj
 .debug_frame   0x00000000000029e4       0x40 /usr/lib/gcc/arm-none-eabi/10.3.1/../../../arm-none-eabi/lib/thumb/v6-m/nofp/libg.a(lib_a-atoi.o)
 .debug_frame   0x0000000000002a24       0x40 /usr/lib/gcc/arm-none-eabi/10.3.1/../../../arm-none-eabi/lib/thumb/v6-m/nofp/libg.a(lib_a-malloc.o)
 .debug_frame   0x0000000000002a64       0x3c /usr/lib/gcc/arm-none-eabi/10.3.1/../../../arm-none-eabi/lib/thumb/v6-m/nofp/libg.a(lib_a-mallocr.o)
 .debug_frame   0x0000000000002aa0       0x30 /usr/lib/gcc/arm-none-eabi/10.3.1/../../../arm-none-eabi/lib/thumb/v6-m/nofp/libg.a(lib_a-mlock.o)
 .debug_frame   0x0000000000002ad0       0x2c /usr/lib/gcc/arm-none-eabi/10.3.1/../../../arm-none-eabi/lib/thumb/v6-m/nofp/libg.a(lib_a-sbrkr.o)
 .debug_frame   0x0000000000002afc       0x2c /usr/lib/gcc/arm-none-eabi/10.3.1/../../../arm-none-eabi/lib/thumb/v6-m/nofp/libg.a(lib_a-strcat.o)
 .debug_frame   0x0000000000002b28       0x30 /usr/lib/gcc/arm-none-eabi/10.3.1/../../../arm-none-eabi/lib/thumb/v6-m/nofp/libg.a(lib_a-strchr.o)
 .debug_frame   0x0000000000002b58       0x20 /usr/lib/gcc/arm-none-eabi/10.3.1/../../../arm-none-eabi/lib/thumb/v6-m/nofp/libg.a(lib_a-strcpy.o)
 .debug_frame   0x0000000000002b78       0x28 /usr/lib/gcc/arm-none-eabi/10.3.1/../../../arm-none-eabi/lib/thumb/v6-m/nofp/libg.a(lib_a-strlen-stub.o)
 .debug_frame   0x0000000000002ba0       0x30 /usr/lib/gcc/arm-none-eabi/10.3.1/../../../arm-none-eabi/lib/thumb/v6-m/nofp/libg.a(lib_a-strncpy.o)
 .debug_frame   0x0000000000002bd0       0x64 /usr/lib/gcc/arm-none-eabi/10.3.1/../../../arm-none-eabi/lib/thumb/v6-m/nofp/libg.a(lib_a-strstr.o)
 .debug_frame   0x0000000000002c34       0x84 /usr/lib/gcc/arm-none-eabi/10.3.1/../../../arm-none-eabi/lib/thumb/v6-m/nofp/libg.a(lib_a-strtol.o)
 .debug_frame   0x0000000000002cb8       0x20 /usr/lib/gcc/arm-none-eabi/10.3.1/../../../arm-none-eabi/lib/thumb/v6-m/nofp/libg.a(lib_a-errno.o)
 .debug_frame   0x0000000000002cd8       0x54 /usr/lib/gcc/arm-none-eabi/10.3.1/../../../arm-none-eabi/lib/thumb/v6-m/nofp/libg.a(lib_a-freer.o)
 .debug_frame   0x0000000000002d2c       0x2c /usr/lib/gcc/arm-none-eabi/10.3.1/../../../arm-none-eabi/lib/thumb/v6-m/nofp/libg.a(lib_a-memcmp.o)
 .debug_frame   0x0000000000002d58       0x50 /usr/lib/gcc/arm-none-eabi/10.3.1/../../../arm-none-eabi/lib/thumb/v6-m/nofp/libg.a(lib_a-reent.o)
 .debug_frame   0x0000000000002da8       0x28 /usr/lib/gcc/arm-none-eabi/10.3.1/../../../arm-none-eabi/lib/thumb/v6-m/nofp/libg.a(lib_a-strnlen.o)
